(dp1
S'output'
p2
S"<type 'exceptions.TypeError'> 'tuple' object is not callable"
p3
sS'layer'
p4
S'D:\\web2py\\applications\\patrimonio\\models\\menu.py'
p5
sS'code'
p6
S'# -*- coding: utf-8 -*-\n# this file is released under public domain and you can use without limitations\n\n#########################################################################\n## Customize your APP title, subtitle and menus here\n#########################################################################\n\nresponse.logo = A(B(\'Policia de Catamarca -Sistema Patrimonial\',SPAN(),\'\'),XML(\'\'),\n                  _class="brand",_href="")\nresponse.title = \'Sistema de Partes de Novedades\'\nresponse.subtitle = \'Ver_1.0\'\n\n## read more at http://dev.w3.org/html5/markup/meta.name.html\nresponse.meta.author = \'Your Name <you@example.com>\'\nresponse.meta.keywords = \'web2py, python, framework\'\nresponse.meta.generator = \'Web2py Web Framework\'\n\n## your http://google.com/analytics id\nresponse.google_analytics_id = None\n\n#########################################################################\n## this is the main application menu add/remove items as required\n#########################################################################\n\nresponse.menu = [\n#    (T(\'Home\'), False, URL(\'default\', \'index\'), [])\n]\n\nDEVELOPMENT_MENU = True\n\n#########################################################################\n## provide shortcuts for development. remove in production\n#########################################################################\n\ndef _():\n    # shortcuts\n    #app = request.application\n    #ctr = request.controller\n    # useful links to internal and external resources\n\n    ### MENU MIO\n    #response.menu = [(SPAN(I(_class=\' icon-user icon-white\'), B(\' Adm. Usuarios\')),False,URL(c=\'registro\', f=\'miregistro\')),]\n\n    """\n    response.menu += [\n        (SPAN(\'web2py\', _class=\'highlighted\'), False, \'http://web2py.com\', [\n        (T(\'My Sites\'), False, URL(\'admin\', \'default\', \'site\')),\n        (T(\'This App\'), False, URL(\'admin\', \'default\', \'design/%s\' % app), [\n        (T(\'Controller\'), False,\n         URL(\n         \'admin\', \'default\', \'edit/%s/controllers/%s.py\' % (app, ctr))),\n        (T(\'View\'), False,\n         URL(\n         \'admin\', \'default\', \'edit/%s/views/%s\' % (app, response.view))),\n        (T(\'Layout\'), False,\n         URL(\n         \'admin\', \'default\', \'edit/%s/views/layout.html\' % app)),\n        (T(\'Stylesheet\'), False,\n         URL(\n         \'admin\', \'default\', \'edit/%s/static/css/web2py.css\' % app)),\n        (T(\'DB Model\'), False,\n         URL(\n         \'admin\', \'default\', \'edit/%s/models/db.py\' % app)),\n        (T(\'Menu Model\'), False,\n         URL(\n         \'admin\', \'default\', \'edit/%s/models/menu.py\' % app)),\n        (T(\'Database\'), False, URL(app, \'appadmin\', \'index\')),\n        (T(\'Errors\'), False, URL(\n         \'admin\', \'default\', \'errors/\' + app)),\n        (T(\'About\'), False, URL(\n         \'admin\', \'default\', \'about/\' + app)),\n        ]),\n            (\'web2py.com\', False, \'http://www.web2py.com\', [\n             (T(\'Download\'), False,\n              \'http://www.web2py.com/examples/default/download\'),\n             (T(\'Support\'), False,\n              \'http://www.web2py.com/examples/default/support\'),\n             (T(\'Demo\'), False, \'http://web2py.com/demo_admin\'),\n             (T(\'Quick Examples\'), False,\n              \'http://web2py.com/examples/default/examples\'),\n             (T(\'FAQ\'), False, \'http://web2py.com/AlterEgo\'),\n             (T(\'Videos\'), False,\n              \'http://www.web2py.com/examples/default/videos/\'),\n             (T(\'Free Applications\'),\n              False, \'http://web2py.com/appliances\'),\n             (T(\'Plugins\'), False, \'http://web2py.com/plugins\'),\n             (T(\'Layouts\'), False, \'http://web2py.com/layouts\'),\n             (T(\'Recipes\'), False, \'http://web2pyslices.com/\'),\n             (T(\'Semantic\'), False, \'http://web2py.com/semantic\'),\n             ]),\n            (T(\'Documentation\'), False, \'http://www.web2py.com/book\', [\n             (T(\'Preface\'), False,\n              \'http://www.web2py.com/book/default/chapter/00\'),\n             (T(\'Introduction\'), False,\n              \'http://www.web2py.com/book/default/chapter/01\'),\n             (T(\'Python\'), False,\n              \'http://www.web2py.com/book/default/chapter/02\'),\n             (T(\'Overview\'), False,\n              \'http://www.web2py.com/book/default/chapter/03\'),\n             (T(\'The Core\'), False,\n              \'http://www.web2py.com/book/default/chapter/04\'),\n             (T(\'The Views\'), False,\n              \'http://www.web2py.com/book/default/chapter/05\'),\n             (T(\'Database\'), False,\n              \'http://www.web2py.com/book/default/chapter/06\'),\n             (T(\'Forms and Validators\'), False,\n              \'http://www.web2py.com/book/default/chapter/07\'),\n             (T(\'Email and SMS\'), False,\n              \'http://www.web2py.com/book/default/chapter/08\'),\n             (T(\'Access Control\'), False,\n              \'http://www.web2py.com/book/default/chapter/09\'),\n             (T(\'Services\'), False,\n              \'http://www.web2py.com/book/default/chapter/10\'),\n             (T(\'Ajax Recipes\'), False,\n              \'http://www.web2py.com/book/default/chapter/11\'),\n             (T(\'Components and Plugins\'), False,\n              \'http://www.web2py.com/book/default/chapter/12\'),\n             (T(\'Deployment Recipes\'), False,\n              \'http://www.web2py.com/book/default/chapter/13\'),\n             (T(\'Other Recipes\'), False,\n              \'http://www.web2py.com/book/default/chapter/14\'),\n             (T(\'Buy this book\'), False,\n              \'http://stores.lulu.com/web2py\'),\n             ]),\n            (T(\'Community\'), False, None, [\n             (T(\'Groups\'), False,\n              \'http://www.web2py.com/examples/default/usergroups\'),\n                        (T(\'Twitter\'), False, \'http://twitter.com/web2py\'),\n                        (T(\'Live Chat\'), False,\n                         \'http://webchat.freenode.net/?channels=web2py\'),\n                        ]),\n                (T(\'Plugins\'), False, None, [\n                        (\'plugin_wiki\', False,\n                         \'http://web2py.com/examples/default/download\'),\n                        (T(\'Other Plugins\'), False,\n                         \'http://web2py.com/plugins\'),\n                        (T(\'Layout Plugins\'),\n                         False, \'http://web2py.com/layouts\'),\n                        ])\n                ]\n         )]"""\nif DEVELOPMENT_MENU: _()\n\n#if "auth" in locals(): auth.wikimenu() \nif auth.is_logged_in():\n  response.menu += [(SPAN(I(_class=\'glyphicon glyphicon-home\'), B(\' Panel Principal\')),False,URL(c=\'default\', f=\'principal\')),\n  (SPAN(I(_class=\' glyphicon glyphicon-plus\'), B(\' Cargar Bien\')),False,URL(c=\'nreg\', f=\'consulta\')),\n  (SPAN(I(_class=\' glyphicon glyphicon-zoom-out\'), B(\' Consulta\')),False,URL(c=\'consulta\', f=\'menu\')),\n  (SPAN(I(_class=\'glyphicon glyphicon-user\'), B(\'Panel Administrador\')),False,URL(c=\'usuario\', f=\'usuario\'))\n  (T(\'Asuntos Judiciales\'), False, None, [\n            (SPAN(I(_class=\'glyphicon glyphicon-plus \'), B(\' Parte de novedades\')),False,URL(c=\'parte\', f=\'home_parte\')),LI(_class="divider"),\n            (SPAN(I(_class=\'glyphicon glyphicon-scale\'), B(\' Parte de accidentes\')),False,URL(c=\'accidentes\', f=\'home_accidentes\')),LI(_class="divider")\n            ])]\n  \n\n'
p7
sS'snapshot'
p8
(dp9
S'exception'
p10
(dp11
S'__hash__'
p12
S"<method-wrapper '__hash__' of exceptions.TypeError object>"
p13
sS'__setattr__'
p14
S"<method-wrapper '__setattr__' of exceptions.TypeError object>"
p15
sS'__reduce_ex__'
p16
S'<built-in method __reduce_ex__ of exceptions.TypeError object>'
p17
sS'__getslice__'
p18
S"<method-wrapper '__getslice__' of exceptions.TypeError object>"
p19
sS'__getitem__'
p20
S"<method-wrapper '__getitem__' of exceptions.TypeError object>"
p21
sS'__setstate__'
p22
S'<built-in method __setstate__ of exceptions.TypeError object>'
p23
sS'__reduce__'
p24
S'<built-in method __reduce__ of exceptions.TypeError object>'
p25
sS'__str__'
p26
S"<method-wrapper '__str__' of exceptions.TypeError object>"
p27
sS'__format__'
p28
S'<built-in method __format__ of exceptions.TypeError object>'
p29
sS'__getattribute__'
p30
S"<method-wrapper '__getattribute__' of exceptions.TypeError object>"
p31
sS'__class__'
p32
S"<type 'exceptions.TypeError'>"
p33
sS'__unicode__'
p34
S'<built-in method __unicode__ of exceptions.TypeError object>'
p35
sS'__delattr__'
p36
S"<method-wrapper '__delattr__' of exceptions.TypeError object>"
p37
sS'__subclasshook__'
p38
S'<built-in method __subclasshook__ of type object>'
p39
sS'__repr__'
p40
S"<method-wrapper '__repr__' of exceptions.TypeError object>"
p41
sS'args'
p42
S'("\'tuple\' object is not callable",)'
p43
sS'__dict__'
p44
S'{}'
p45
sS'__sizeof__'
p46
S'<built-in method __sizeof__ of exceptions.TypeError object>'
p47
sS'__doc__'
p48
S"'Inappropriate argument type.'"
p49
sS'__init__'
p50
S"<method-wrapper '__init__' of exceptions.TypeError object>"
p51
sS'__new__'
p52
S'<built-in method __new__ of type object>'
p53
ssS'evalue'
p54
S"'tuple' object is not callable"
p55
sS'request'
p56
cgluon.html
XML_unpickle
p57
(S's\x00r\x00\x00<div><table><tr><td style="font-weight:bold;vertical-align:top;">ajax</td><td style="vertical-align:top;">:</td><td><div>False</div></td></tr><tr><td style="font-weight:bold;vertical-align:top;">application</td><td style="vertical-align:top;">:</td><td><div>patrimonio</div></td></tr><tr><td style="font-weight:bold;vertical-align:top;">args</td><td style="vertical-align:top;">:</td><td><div><table></table></div></td></tr><tr><td style="font-weight:bold;vertical-align:top;">cid</td><td style="vertical-align:top;">:</td><td><div>None</div></td></tr><tr><td style="font-weight:bold;vertical-align:top;">client</td><td style="vertical-align:top;">:</td><td><div>127.0.0.1</div></td></tr><tr><td style="font-weight:bold;vertical-align:top;">controller</td><td style="vertical-align:top;">:</td><td><div>consulta</div></td></tr><tr><td style="font-weight:bold;vertical-align:top;">cookies</td><td style="vertical-align:top;">:</td><td><div><table><tr><td style="font-weight:bold;vertical-align:top;">session_id_admin</td><td style="vertical-align:top;">:</td><td><div>127.0.0.1-f372ade9-49f7-4545-b6d8-419714ccb55b<table><tr><td style="font-weight:bold;vertical-align:top;">comment</td><td style="vertical-align:top;">:</td><td><div></div></td></tr><tr><td style="font-weight:bold;vertical-align:top;">domain</td><td style="vertical-align:top;">:</td><td><div></div></td></tr><tr><td style="font-weight:bold;vertical-align:top;">expires</td><td style="vertical-align:top;">:</td><td><div></div></td></tr><tr><td style="font-weight:bold;vertical-align:top;">httponly</td><td style="vertical-align:top;">:</td><td><div></div></td></tr><tr><td style="font-weight:bold;vertical-align:top;">max-age</td><td style="vertical-align:top;">:</td><td><div></div></td></tr><tr><td style="font-weight:bold;vertical-align:top;">path</td><td style="vertical-align:top;">:</td><td><div></div></td></tr><tr><td style="font-weight:bold;vertical-align:top;">secure</td><td style="vertical-align:top;">:</td><td><div></div></td></tr><tr><td style="font-weight:bold;vertical-align:top;">version</td><td style="vertical-align:top;">:</td><td><div></div></td></tr></table></div></td></tr><tr><td style="font-weight:bold;vertical-align:top;">session_id_api</td><td style="vertical-align:top;">:</td><td><div>127.0.0.1-e6f2c27a-322e-4491-a241-d07cea9d460e<table><tr><td style="font-weight:bold;vertical-align:top;">comment</td><td style="vertical-align:top;">:</td><td><div></div></td></tr><tr><td style="font-weight:bold;vertical-align:top;">domain</td><td style="vertical-align:top;">:</td><td><div></div></td></tr><tr><td style="font-weight:bold;vertical-align:top;">expires</td><td style="vertical-align:top;">:</td><td><div></div></td></tr><tr><td style="font-weight:bold;vertical-align:top;">httponly</td><td style="vertical-align:top;">:</td><td><div></div></td></tr><tr><td style="font-weight:bold;vertical-align:top;">max-age</td><td style="vertical-align:top;">:</td><td><div></div></td></tr><tr><td style="font-weight:bold;vertical-align:top;">path</td><td style="vertical-align:top;">:</td><td><div></div></td></tr><tr><td style="font-weight:bold;vertical-align:top;">secure</td><td style="vertical-align:top;">:</td><td><div></div></td></tr><tr><td style="font-weight:bold;vertical-align:top;">version</td><td style="vertical-align:top;">:</td><td><div></div></td></tr></table></div></td></tr><tr><td style="font-weight:bold;vertical-align:top;">session_id_judiciales</td><td style="vertical-align:top;">:</td><td><div>127.0.0.1-5d64923f-dd21-4e67-b8be-d81a89c3a872<table><tr><td style="font-weight:bold;vertical-align:top;">comment</td><td style="vertical-align:top;">:</td><td><div></div></td></tr><tr><td style="font-weight:bold;vertical-align:top;">domain</td><td style="vertical-align:top;">:</td><td><div></div></td></tr><tr><td style="font-weight:bold;vertical-align:top;">expires</td><td style="vertical-align:top;">:</td><td><div></div></td></tr><tr><td style="font-weight:bold;vertical-align:top;">httponly</td><td style="vertical-align:top;">:</td><td><div></div></td></tr><tr><td style="font-weight:bold;vertical-align:top;">max-age</td><td style="vertical-align:top;">:</td><td><div></div></td></tr><tr><td style="font-weight:bold;vertical-align:top;">path</td><td style="vertical-align:top;">:</td><td><div></div></td></tr><tr><td style="font-weight:bold;vertical-align:top;">secure</td><td style="vertical-align:top;">:</td><td><div></div></td></tr><tr><td style="font-weight:bold;vertical-align:top;">version</td><td style="vertical-align:top;">:</td><td><div></div></td></tr></table></div></td></tr><tr><td style="font-weight:bold;vertical-align:top;">session_id_partenovedades</td><td style="vertical-align:top;">:</td><td><div>127.0.0.1-756adb24-8237-4968-a031-d5a27af0b412<table><tr><td style="font-weight:bold;vertical-align:top;">comment</td><td style="vertical-align:top;">:</td><td><div></div></td></tr><tr><td style="font-weight:bold;vertical-align:top;">domain</td><td style="vertical-align:top;">:</td><td><div></div></td></tr><tr><td style="font-weight:bold;vertical-align:top;">expires</td><td style="vertical-align:top;">:</td><td><div></div></td></tr><tr><td style="font-weight:bold;vertical-align:top;">httponly</td><td style="vertical-align:top;">:</td><td><div></div></td></tr><tr><td style="font-weight:bold;vertical-align:top;">max-age</td><td style="vertical-align:top;">:</td><td><div></div></td></tr><tr><td style="font-weight:bold;vertical-align:top;">path</td><td style="vertical-align:top;">:</td><td><div></div></td></tr><tr><td style="font-weight:bold;vertical-align:top;">secure</td><td style="vertical-align:top;">:</td><td><div></div></td></tr><tr><td style="font-weight:bold;vertical-align:top;">version</td><td style="vertical-align:top;">:</td><td><div></div></td></tr></table></div></td></tr><tr><td style="font-weight:bold;vertical-align:top;">session_id_patrimonio</td><td style="vertical-align:top;">:</td><td><div>127.0.0.1-5bded7f9-007f-493b-91f9-f646f9de3301<table><tr><td style="font-weight:bold;vertical-align:top;">comment</td><td style="vertical-align:top;">:</td><td><div></div></td></tr><tr><td style="font-weight:bold;vertical-align:top;">domain</td><td style="vertical-align:top;">:</td><td><div></div></td></tr><tr><td style="font-weight:bold;vertical-align:top;">expires</td><td style="vertical-align:top;">:</td><td><div></div></td></tr><tr><td style="font-weight:bold;vertical-align:top;">httponly</td><td style="vertical-align:top;">:</td><td><div></div></td></tr><tr><td style="font-weight:bold;vertical-align:top;">max-age</td><td style="vertical-align:top;">:</td><td><div></div></td></tr><tr><td style="font-weight:bold;vertical-align:top;">path</td><td style="vertical-align:top;">:</td><td><div></div></td></tr><tr><td style="font-weight:bold;vertical-align:top;">secure</td><td style="vertical-align:top;">:</td><td><div></div></td></tr><tr><td style="font-weight:bold;vertical-align:top;">version</td><td style="vertical-align:top;">:</td><td><div></div></td></tr></table></div></td></tr><tr><td style="font-weight:bold;vertical-align:top;">session_id_pedidos_secuestro2</td><td style="vertical-align:top;">:</td><td><div>127.0.0.1-89c54f3d-5122-4936-842f-2d2eef5f4e89<table><tr><td style="font-weight:bold;vertical-align:top;">comment</td><td style="vertical-align:top;">:</td><td><div></div></td></tr><tr><td style="font-weight:bold;vertical-align:top;">domain</td><td style="vertical-align:top;">:</td><td><div></div></td></tr><tr><td style="font-weight:bold;vertical-align:top;">expires</td><td style="vertical-align:top;">:</td><td><div></div></td></tr><tr><td style="font-weight:bold;vertical-align:top;">httponly</td><td style="vertical-align:top;">:</td><td><div></div></td></tr><tr><td style="font-weight:bold;vertical-align:top;">max-age</td><td style="vertical-align:top;">:</td><td><div></div></td></tr><tr><td style="font-weight:bold;vertical-align:top;">path</td><td style="vertical-align:top;">:</td><td><div></div></td></tr><tr><td style="font-weight:bold;vertical-align:top;">secure</td><td style="vertical-align:top;">:</td><td><div></div></td></tr><tr><td style="font-weight:bold;vertical-align:top;">version</td><td style="vertical-align:top;">:</td><td><div></div></td></tr></table></div></td></tr><tr><td style="font-weight:bold;vertical-align:top;">session_id_welcome</td><td style="vertical-align:top;">:</td><td><div>127.0.0.1-265e992f-d837-4d1b-b39b-3a3388470af4<table><tr><td style="font-weight:bold;vertical-align:top;">comment</td><td style="vertical-align:top;">:</td><td><div></div></td></tr><tr><td style="font-weight:bold;vertical-align:top;">domain</td><td style="vertical-align:top;">:</td><td><div></div></td></tr><tr><td style="font-weight:bold;vertical-align:top;">expires</td><td style="vertical-align:top;">:</td><td><div></div></td></tr><tr><td style="font-weight:bold;vertical-align:top;">httponly</td><td style="vertical-align:top;">:</td><td><div></div></td></tr><tr><td style="font-weight:bold;vertical-align:top;">max-age</td><td style="vertical-align:top;">:</td><td><div></div></td></tr><tr><td style="font-weight:bold;vertical-align:top;">path</td><td style="vertical-align:top;">:</td><td><div></div></td></tr><tr><td style="font-weight:bold;vertical-align:top;">secure</td><td style="vertical-align:top;">:</td><td><div></div></td></tr><tr><td style="font-weight:bold;vertical-align:top;">version</td><td style="vertical-align:top;">:</td><td><div></div></td></tr></table></div></td></tr></table></div></td></tr><tr><td style="font-weight:bold;vertical-align:top;">env</td><td style="vertical-align:top;">:</td><td><div><table><tr><td style="font-weight:bold;vertical-align:top;">HTTP_ACCEPT</td><td style="vertical-align:top;">:</td><td><div>text/html,application/xhtml+xml,application/xml;q=0.9,image/webp,image/apng,*/*;q=0.8</div></td></tr><tr><td style="font-weight:bold;vertical-align:top;">HTTP_ACCEPT_ENCODING</td><td style="vertical-align:top;">:</td><td><div>gzip, deflate, br</div></td></tr><tr><td style="font-weight:bold;vertical-align:top;">HTTP_ACCEPT_LANGUAGE</td><td style="vertical-align:top;">:</td><td><div>es-ES,es;q=0.9,en;q=0.8</div></td></tr><tr><td style="font-weight:bold;vertical-align:top;">HTTP_CACHE_CONTROL</td><td style="vertical-align:top;">:</td><td><div>max-age=0</div></td></tr><tr><td style="font-weight:bold;vertical-align:top;">HTTP_CONNECTION</td><td style="vertical-align:top;">:</td><td><div>keep-alive</div></td></tr><tr><td style="font-weight:bold;vertical-align:top;">HTTP_COOKIE</td><td style="vertical-align:top;">:</td><td><div>session_id_patrimonio=127.0.0.1-5bded7f9-007f-493b-91f9-f646f9de3301; session_id_welcome=127.0.0.1-265e992f-d837-4d1b-b39b-3a3388470af4; session_id_admin=127.0.0.1-f372ade9-49f7-4545-b6d8-419714ccb55b; session_id_api=127.0.0.1-e6f2c27a-322e-4491-a241-d07cea9d460e; session_id_pedidos_secuestro2=127.0.0.1-89c54f3d-5122-4936-842f-2d2eef5f4e89; session_id_judiciales=127.0.0.1-5d64923f-dd21-4e67-b8be-d81a89c3a872; session_id_partenovedades=127.0.0.1-756adb24-8237-4968-a031-d5a27af0b412</div></td></tr><tr><td style="font-weight:bold;vertical-align:top;">HTTP_HOST</td><td style="vertical-align:top;">:</td><td><div>127.0.0.1:8000</div></td></tr><tr><td style="font-weight:bold;vertical-align:top;">HTTP_UPGRADE_INSECURE_REQUESTS</td><td style="vertical-align:top;">:</td><td><div>1</div></td></tr><tr><td style="font-weight:bold;vertical-align:top;">HTTP_USER_AGENT</td><td style="vertical-align:top;">:</td><td><div>Mozilla/5.0 (Windows NT 6.1) AppleWebKit/537.36 (KHTML, like Gecko) Chrome/66.0.3359.181 Safari/537.36</div></td></tr><tr><td style="font-weight:bold;vertical-align:top;">PATH_INFO</td><td style="vertical-align:top;">:</td><td><div>/patrimonio/consulta/consulta1</div></td></tr><tr><td style="font-weight:bold;vertical-align:top;">QUERY_STRING</td><td style="vertical-align:top;">:</td><td><div></div></td></tr><tr><td style="font-weight:bold;vertical-align:top;">REMOTE_ADDR</td><td style="vertical-align:top;">:</td><td><div>127.0.0.1</div></td></tr><tr><td style="font-weight:bold;vertical-align:top;">REMOTE_PORT</td><td style="vertical-align:top;">:</td><td><div>51659</div></td></tr><tr><td style="font-weight:bold;vertical-align:top;">REQUEST_METHOD</td><td style="vertical-align:top;">:</td><td><div>GET</div></td></tr><tr><td style="font-weight:bold;vertical-align:top;">SCRIPT_NAME</td><td style="vertical-align:top;">:</td><td><div></div></td></tr><tr><td style="font-weight:bold;vertical-align:top;">SERVER_NAME</td><td style="vertical-align:top;">:</td><td><div>HaTaK3-PC</div></td></tr><tr><td style="font-weight:bold;vertical-align:top;">SERVER_PORT</td><td style="vertical-align:top;">:</td><td><div>8000</div></td></tr><tr><td style="font-weight:bold;vertical-align:top;">SERVER_PROTOCOL</td><td style="vertical-align:top;">:</td><td><div>HTTP/1.1</div></td></tr><tr><td style="font-weight:bold;vertical-align:top;">SERVER_SOFTWARE</td><td style="vertical-align:top;">:</td><td><div>Rocket 1.2.6</div></td></tr><tr><td style="font-weight:bold;vertical-align:top;">app_folders</td><td style="vertical-align:top;">:</td><td><div>set([&#x27;D:\\\\web2py\\\\applications\\\\partenovedades\\\\&#x27;, &#x27;D:\\\\web2py\\\\applications\\\\welcome\\\\&#x27;, &#x27;D:\\\\web2py\\\\applications\\\\pedidos_secuestro2\\\\&#x27;, &#x27;D:\\\\web2py\\\\applications\\\\judiciales\\\\&#x27;, &#x27;D:\\\\web2py\\\\applications\\\\admin\\\\&#x27;, &#x27;D:\\\\web2py\\\\applications\\\\api\\\\&#x27;, &#x27;D:\\\\web2py\\\\applications\\\\patrimonio\\\\&#x27;])</div></td></tr><tr><td style="font-weight:bold;vertical-align:top;">applications_parent</td><td style="vertical-align:top;">:</td><td><div>D:\\web2py</div></td></tr><tr><td style="font-weight:bold;vertical-align:top;">cmd_args</td><td style="vertical-align:top;">:</td><td><div><table></table></div></td></tr><tr><td style="font-weight:bold;vertical-align:top;">cmd_options</td><td style="vertical-align:top;">:</td><td><div>&lt;Values at 0x2679d50: {&#x27;verbose&#x27;: False, &#x27;ip&#x27;: &#x27;127.0.0.1&#x27;, &#x27;debuglevel&#x27;: 30, &#x27;with_scheduler&#x27;: False, &#x27;shutdown_timeout&#x27;: 5, &#x27;taskbar&#x27;: False, &#x27;with_coverage&#x27;: False, &#x27;pid_filename&#x27;: &#x27;httpserver.pid&#x27;, &#x27;maxthreads&#x27;: None, &#x27;softcron&#x27;: False, &#x27;server_name&#x27;: &#x27;HaTaK3-PC&#x27;, &#x27;bpython&#x27;: False, &#x27;nogui&#x27;: False, &#x27;port&#x27;: 8000, &#x27;print_errors&#x27;: False, &#x27;extcron&#x27;: False, &#x27;runcron&#x27;: False, &#x27;run_system_tests&#x27;: False, &#x27;test&#x27;: None, &#x27;folder&#x27;: &#x27;D:\\\\web2py&#x27;, &#x27;config&#x27;: &#x27;&#x27;, &#x27;minthreads&#x27;: None, &#x27;shell&#x27;: None, &#x27;run&#x27;: &#x27;&#x27;, &#x27;log_filename&#x27;: &#x27;httpserver.log&#x27;, &#x27;profiler_dir&#x27;: None, &#x27;args&#x27;: [&#x27;&#x27;], &#x27;socket_timeout&#x27;: 5, &#x27;ssl_ca_certificate&#x27;: None, &#x27;scheduler&#x27;: None, &#x27;interfaces&#x27;: None, &#x27;ssl_private_key&#x27;: &#x27;&#x27;, &#x27;gae&#x27;: None, &#x27;password&#x27;: &#x27;******&#x27;, &#x27;request_queue_size&#x27;: 5, &#x27;ssl_certificate&#x27;: &#x27;&#x27;, &#x27;cronjob&#x27;: False, &#x27;numthreads&#x27;: None, &#x27;quiet&#x27;: False, &#x27;import_models&#x27;: False, &#x27;timeout&#x27;: 10, &#x27;plain&#x27;: False, &#x27;nobanner&#x27;: False}&gt;</div></td></tr><tr><td style="font-weight:bold;vertical-align:top;">db_sessions</td><td style="vertical-align:top;">:</td><td><div>set([])</div></td></tr><tr><td style="font-weight:bold;vertical-align:top;">debugging</td><td style="vertical-align:top;">:</td><td><div>True</div></td></tr><tr><td style="font-weight:bold;vertical-align:top;">gluon_parent</td><td style="vertical-align:top;">:</td><td><div>D:\\web2py</div></td></tr><tr><td style="font-weight:bold;vertical-align:top;">http_accept</td><td style="vertical-align:top;">:</td><td><div>text/html,application/xhtml+xml,application/xml;q=0.9,image/webp,image/apng,*/*;q=0.8</div></td></tr><tr><td style="font-weight:bold;vertical-align:top;">http_accept_encoding</td><td style="vertical-align:top;">:</td><td><div>gzip, deflate, br</div></td></tr><tr><td style="font-weight:bold;vertical-align:top;">http_accept_language</td><td style="vertical-align:top;">:</td><td><div>es-ES,es;q=0.9,en;q=0.8</div></td></tr><tr><td style="font-weight:bold;vertical-align:top;">http_cache_control</td><td style="vertical-align:top;">:</td><td><div>max-age=0</div></td></tr><tr><td style="font-weight:bold;vertical-align:top;">http_connection</td><td style="vertical-align:top;">:</td><td><div>keep-alive</div></td></tr><tr><td style="font-weight:bold;vertical-align:top;">http_cookie</td><td style="vertical-align:top;">:</td><td><div>session_id_patrimonio=127.0.0.1-5bded7f9-007f-493b-91f9-f646f9de3301; session_id_welcome=127.0.0.1-265e992f-d837-4d1b-b39b-3a3388470af4; session_id_admin=127.0.0.1-f372ade9-49f7-4545-b6d8-419714ccb55b; session_id_api=127.0.0.1-e6f2c27a-322e-4491-a241-d07cea9d460e; session_id_pedidos_secuestro2=127.0.0.1-89c54f3d-5122-4936-842f-2d2eef5f4e89; session_id_judiciales=127.0.0.1-5d64923f-dd21-4e67-b8be-d81a89c3a872; session_id_partenovedades=127.0.0.1-756adb24-8237-4968-a031-d5a27af0b412</div></td></tr><tr><td style="font-weight:bold;vertical-align:top;">http_host</td><td style="vertical-align:top;">:</td><td><div>127.0.0.1:8000</div></td></tr><tr><td style="font-weight:bold;vertical-align:top;">http_upgrade_insecure_requests</td><td style="vertical-align:top;">:</td><td><div>1</div></td></tr><tr><td style="font-weight:bold;vertical-align:top;">http_user_agent</td><td style="vertical-align:top;">:</td><td><div>Mozilla/5.0 (Windows NT 6.1) AppleWebKit/537.36 (KHTML, like Gecko) Chrome/66.0.3359.181 Safari/537.36</div></td></tr><tr><td style="font-weight:bold;vertical-align:top;">is_jython</td><td style="vertical-align:top;">:</td><td><div>False</div></td></tr><tr><td style="font-weight:bold;vertical-align:top;">is_pypy</td><td style="vertical-align:top;">:</td><td><div>False</div></td></tr><tr><td style="font-weight:bold;vertical-align:top;">is_source</td><td style="vertical-align:top;">:</td><td><div>False</div></td></tr><tr><td style="font-weight:bold;vertical-align:top;">local_hosts</td><td style="vertical-align:top;">:</td><td><div><table><tr><td><div>10.20.0.201</div></td></tr><tr><td><div>::ffff:127.0.0.1</div></td></tr><tr><td><div>::1</div></td></tr><tr><td><div>fe80::6de3:fa60:8d1c:59aa%11</div></td></tr><tr><td><div>127.0.0.1</div></td></tr><tr><td><div>HaTaK3-PC</div></td></tr></table></div></td></tr><tr><td style="font-weight:bold;vertical-align:top;">path_info</td><td style="vertical-align:top;">:</td><td><div>/patrimonio/consulta/consulta1</div></td></tr><tr><td style="font-weight:bold;vertical-align:top;">query_string</td><td style="vertical-align:top;">:</td><td><div></div></td></tr><tr><td style="font-weight:bold;vertical-align:top;">remote_addr</td><td style="vertical-align:top;">:</td><td><div>127.0.0.1</div></td></tr><tr><td style="font-weight:bold;vertical-align:top;">remote_port</td><td style="vertical-align:top;">:</td><td><div>51659</div></td></tr><tr><td style="font-weight:bold;vertical-align:top;">request_method</td><td style="vertical-align:top;">:</td><td><div>GET</div></td></tr><tr><td style="font-weight:bold;vertical-align:top;">request_uri</td><td style="vertical-align:top;">:</td><td><div>/patrimonio/consulta/consulta1</div></td></tr><tr><td style="font-weight:bold;vertical-align:top;">script_name</td><td style="vertical-align:top;">:</td><td><div></div></td></tr><tr><td style="font-weight:bold;vertical-align:top;">server_name</td><td style="vertical-align:top;">:</td><td><div>HaTaK3-PC</div></td></tr><tr><td style="font-weight:bold;vertical-align:top;">server_port</td><td style="vertical-align:top;">:</td><td><div>8000</div></td></tr><tr><td style="font-weight:bold;vertical-align:top;">server_protocol</td><td style="vertical-align:top;">:</td><td><div>HTTP/1.1</div></td></tr><tr><td style="font-weight:bold;vertical-align:top;">server_software</td><td style="vertical-align:top;">:</td><td><div>Rocket 1.2.6</div></td></tr><tr><td style="font-weight:bold;vertical-align:top;">web2py_path</td><td style="vertical-align:top;">:</td><td><div>D:\\web2py</div></td></tr><tr><td style="font-weight:bold;vertical-align:top;">web2py_version</td><td style="vertical-align:top;">:</td><td><div>2.14.6-stable+timestamp.2016.05.10.00.21.47</div></td></tr><tr><td style="font-weight:bold;vertical-align:top;">wsgi.errors</td><td style="vertical-align:top;">:</td><td><div>&lt;open file &#x27;&lt;stderr&gt;&#x27;, mode &#x27;w&#x27; at 0x011CD0D0&gt;</div></td></tr><tr><td style="font-weight:bold;vertical-align:top;">wsgi.file_wrapper</td><td style="vertical-align:top;">:</td><td><div>&lt;class wsgiref.util.FileWrapper at 0x0277C490&gt;</div></td></tr><tr><td style="font-weight:bold;vertical-align:top;">wsgi.input</td><td style="vertical-align:top;">:</td><td><div>&lt;socket._fileobject object at 0x073D43B0&gt;</div></td></tr><tr><td style="font-weight:bold;vertical-align:top;">wsgi.multiprocess</td><td style="vertical-align:top;">:</td><td><div>False</div></td></tr><tr><td style="font-weight:bold;vertical-align:top;">wsgi.multithread</td><td style="vertical-align:top;">:</td><td><div>True</div></td></tr><tr><td style="font-weight:bold;vertical-align:top;">wsgi.run_once</td><td style="vertical-align:top;">:</td><td><div>False</div></td></tr><tr><td style="font-weight:bold;vertical-align:top;">wsgi.url_scheme</td><td style="vertical-align:top;">:</td><td><div>http</div></td></tr><tr><td style="font-weight:bold;vertical-align:top;">wsgi.version</td><td style="vertical-align:top;">:</td><td><div><table><tr><td><div>1</div></td></tr><tr><td><div>0</div></td></tr></table></div></td></tr><tr><td style="font-weight:bold;vertical-align:top;">wsgi_errors</td><td style="vertical-align:top;">:</td><td><div>&lt;open file &#x27;&lt;stderr&gt;&#x27;, mode &#x27;w&#x27; at 0x011CD0D0&gt;</div></td></tr><tr><td style="font-weight:bold;vertical-align:top;">wsgi_file_wrapper</td><td style="vertical-align:top;">:</td><td><div>&lt;class wsgiref.util.FileWrapper at 0x0277C490&gt;</div></td></tr><tr><td style="font-weight:bold;vertical-align:top;">wsgi_input</td><td style="vertical-align:top;">:</td><td><div>&lt;socket._fileobject object at 0x073D43B0&gt;</div></td></tr><tr><td style="font-weight:bold;vertical-align:top;">wsgi_multiprocess</td><td style="vertical-align:top;">:</td><td><div>False</div></td></tr><tr><td style="font-weight:bold;vertical-align:top;">wsgi_multithread</td><td style="vertical-align:top;">:</td><td><div>True</div></td></tr><tr><td style="font-weight:bold;vertical-align:top;">wsgi_run_once</td><td style="vertical-align:top;">:</td><td><div>False</div></td></tr><tr><td style="font-weight:bold;vertical-align:top;">wsgi_url_scheme</td><td style="vertical-align:top;">:</td><td><div>http</div></td></tr><tr><td style="font-weight:bold;vertical-align:top;">wsgi_version</td><td style="vertical-align:top;">:</td><td><div><table><tr><td><div>1</div></td></tr><tr><td><div>0</div></td></tr></table></div></td></tr></table></div></td></tr><tr><td style="font-weight:bold;vertical-align:top;">extension</td><td style="vertical-align:top;">:</td><td><div>html</div></td></tr><tr><td style="font-weight:bold;vertical-align:top;">folder</td><td style="vertical-align:top;">:</td><td><div>D:\\web2py\\applications\\patrimonio\\</div></td></tr><tr><td style="font-weight:bold;vertical-align:top;">function</td><td style="vertical-align:top;">:</td><td><div>consulta1</div></td></tr><tr><td style="font-weight:bold;vertical-align:top;">global_settings</td><td style="vertical-align:top;">:</td><td><div><table><tr><td style="font-weight:bold;vertical-align:top;">app_folders</td><td style="vertical-align:top;">:</td><td><div>set([&#x27;D:\\\\web2py\\\\applications\\\\partenovedades\\\\&#x27;, &#x27;D:\\\\web2py\\\\applications\\\\welcome\\\\&#x27;, &#x27;D:\\\\web2py\\\\applications\\\\pedidos_secuestro2\\\\&#x27;, &#x27;D:\\\\web2py\\\\applications\\\\judiciales\\\\&#x27;, &#x27;D:\\\\web2py\\\\applications\\\\admin\\\\&#x27;, &#x27;D:\\\\web2py\\\\applications\\\\api\\\\&#x27;, &#x27;D:\\\\web2py\\\\applications\\\\patrimonio\\\\&#x27;])</div></td></tr><tr><td style="font-weight:bold;vertical-align:top;">applications_parent</td><td style="vertical-align:top;">:</td><td><div>D:\\web2py</div></td></tr><tr><td style="font-weight:bold;vertical-align:top;">cmd_args</td><td style="vertical-align:top;">:</td><td><div><table></table></div></td></tr><tr><td style="font-weight:bold;vertical-align:top;">cmd_options</td><td style="vertical-align:top;">:</td><td><div>&lt;Values at 0x2679d50: {&#x27;verbose&#x27;: False, &#x27;ip&#x27;: &#x27;127.0.0.1&#x27;, &#x27;debuglevel&#x27;: 30, &#x27;with_scheduler&#x27;: False, &#x27;shutdown_timeout&#x27;: 5, &#x27;taskbar&#x27;: False, &#x27;with_coverage&#x27;: False, &#x27;pid_filename&#x27;: &#x27;httpserver.pid&#x27;, &#x27;maxthreads&#x27;: None, &#x27;softcron&#x27;: False, &#x27;server_name&#x27;: &#x27;HaTaK3-PC&#x27;, &#x27;bpython&#x27;: False, &#x27;nogui&#x27;: False, &#x27;port&#x27;: 8000, &#x27;print_errors&#x27;: False, &#x27;extcron&#x27;: False, &#x27;runcron&#x27;: False, &#x27;run_system_tests&#x27;: False, &#x27;test&#x27;: None, &#x27;folder&#x27;: &#x27;D:\\\\web2py&#x27;, &#x27;config&#x27;: &#x27;&#x27;, &#x27;minthreads&#x27;: None, &#x27;shell&#x27;: None, &#x27;run&#x27;: &#x27;&#x27;, &#x27;log_filename&#x27;: &#x27;httpserver.log&#x27;, &#x27;profiler_dir&#x27;: None, &#x27;args&#x27;: [&#x27;&#x27;], &#x27;socket_timeout&#x27;: 5, &#x27;ssl_ca_certificate&#x27;: None, &#x27;scheduler&#x27;: None, &#x27;interfaces&#x27;: None, &#x27;ssl_private_key&#x27;: &#x27;&#x27;, &#x27;gae&#x27;: None, &#x27;password&#x27;: &#x27;******&#x27;, &#x27;request_queue_size&#x27;: 5, &#x27;ssl_certificate&#x27;: &#x27;&#x27;, &#x27;cronjob&#x27;: False, &#x27;numthreads&#x27;: None, &#x27;quiet&#x27;: False, &#x27;import_models&#x27;: False, &#x27;timeout&#x27;: 10, &#x27;plain&#x27;: False, &#x27;nobanner&#x27;: False}&gt;</div></td></tr><tr><td style="font-weight:bold;vertical-align:top;">db_sessions</td><td style="vertical-align:top;">:</td><td><div>set([])</div></td></tr><tr><td style="font-weight:bold;vertical-align:top;">debugging</td><td style="vertical-align:top;">:</td><td><div>True</div></td></tr><tr><td style="font-weight:bold;vertical-align:top;">gluon_parent</td><td style="vertical-align:top;">:</td><td><div>D:\\web2py</div></td></tr><tr><td style="font-weight:bold;vertical-align:top;">is_jython</td><td style="vertical-align:top;">:</td><td><div>False</div></td></tr><tr><td style="font-weight:bold;vertical-align:top;">is_pypy</td><td style="vertical-align:top;">:</td><td><div>False</div></td></tr><tr><td style="font-weight:bold;vertical-align:top;">is_source</td><td style="vertical-align:top;">:</td><td><div>False</div></td></tr><tr><td style="font-weight:bold;vertical-align:top;">local_hosts</td><td style="vertical-align:top;">:</td><td><div><table><tr><td><div>10.20.0.201</div></td></tr><tr><td><div>::ffff:127.0.0.1</div></td></tr><tr><td><div>::1</div></td></tr><tr><td><div>fe80::6de3:fa60:8d1c:59aa%11</div></td></tr><tr><td><div>127.0.0.1</div></td></tr><tr><td><div>HaTaK3-PC</div></td></tr></table></div></td></tr><tr><td style="font-weight:bold;vertical-align:top;">web2py_version</td><td style="vertical-align:top;">:</td><td><div>2.14.6-stable+timestamp.2016.05.10.00.21.47</div></td></tr></table></div></td></tr><tr><td style="font-weight:bold;vertical-align:top;">is_https</td><td style="vertical-align:top;">:</td><td><div>False</div></td></tr><tr><td style="font-weight:bold;vertical-align:top;">is_local</td><td style="vertical-align:top;">:</td><td><div>True</div></td></tr><tr><td style="font-weight:bold;vertical-align:top;">is_restful</td><td style="vertical-align:top;">:</td><td><div>False</div></td></tr><tr><td style="font-weight:bold;vertical-align:top;">is_scheduler</td><td style="vertical-align:top;">:</td><td><div>False</div></td></tr><tr><td style="font-weight:bold;vertical-align:top;">is_shell</td><td style="vertical-align:top;">:</td><td><div>False</div></td></tr><tr><td style="font-weight:bold;vertical-align:top;">now</td><td style="vertical-align:top;">:</td><td><div>datetime.datetime(2018, 6, 11, 13, 39, 39, 125000)</div></td></tr><tr><td style="font-weight:bold;vertical-align:top;">raw_args</td><td style="vertical-align:top;">:</td><td><div></div></td></tr><tr><td style="font-weight:bold;vertical-align:top;">raw_extension</td><td style="vertical-align:top;">:</td><td><div>None</div></td></tr><tr><td style="font-weight:bold;vertical-align:top;">url</td><td style="vertical-align:top;">:</td><td><div>/patrimonio/consulta/consulta1</div></td></tr><tr><td style="font-weight:bold;vertical-align:top;">utcnow</td><td style="vertical-align:top;">:</td><td><div>datetime.datetime(2018, 6, 11, 16, 39, 39, 125000)</div></td></tr><tr><td style="font-weight:bold;vertical-align:top;">wsgi</td><td style="vertical-align:top;">:</td><td><div>&lt;gluon.main.LazyWSGI object at 0x0372AD70&gt;</div></td></tr></table></div>'
tRp58
sS'frames'
p59
(lp60
(dp61
S'file'
p62
S'D:\\web2py\\gluon\\restricted.py'
p63
sS'dump'
p64
(dp65
S'environment'
p66
S"{'A': <class 'gluon.html.A'>, 'ANY_OF': <class 'gluon.validators.ANY_OF'>, 'ASSIGNJS': <function ASSIGNJS>, 'AppConfig': <function AppConfig>, 'Auth': <class 'gluon.tools.Auth'>, 'B': <class 'gluon.html.B'>, 'BEAUTIFY': <class 'gluon.html.BEAUTIFY'>, 'BODY': <class 'gluon.html.BODY'>, 'BR': <class 'gluon.html.BR'>, 'BUTTON': <class 'gluon.html.BUTTON'>, ...}"
p67
sS'ccode'
p68
S'<code object <module> at 07A630F8, file "D:\\web2py\\applications\\patrimonio\\models\\menu.py", line 8>'
p69
ssS'lnum'
p70
I227
sS'lines'
p71
(dp72
I224
S'            ccode = code'
p73
sI225
S'        else:'
p74
sI226
S'            ccode = compile2(code, layer)'
p75
sI227
S'        exec ccode in environment'
p76
sI228
S'    except HTTP:'
p77
sI229
S'        raise'
p78
sI230
S'    except RestrictedError:'
p79
sI231
S'        # do not encapsulate (obfuscate) the original RestrictedError'
p80
sI222
S'    try:'
p81
sI223
S'        if isinstance(code, types.CodeType):'
p82
ssS'call'
p83
S'(code=\'# -*- coding: utf-8 -*-\\n# this file is released ...ntes\\\')),LI(_class="divider")\\n            ])]\\n  \\n\\n\', environment={\'A\': <class \'gluon.html.A\'>, \'ANY_OF\': <class \'gluon.validators.ANY_OF\'>, \'ASSIGNJS\': <function ASSIGNJS>, \'AppConfig\': <function AppConfig>, \'Auth\': <class \'gluon.tools.Auth\'>, \'B\': <class \'gluon.html.B\'>, \'BEAUTIFY\': <class \'gluon.html.BEAUTIFY\'>, \'BODY\': <class \'gluon.html.BODY\'>, \'BR\': <class \'gluon.html.BR\'>, \'BUTTON\': <class \'gluon.html.BUTTON\'>, ...}, layer=r\'D:\\web2py\\applications\\patrimonio\\models\\menu.py\')'
p84
sS'func'
p85
S'restricted'
p86
sa(dp87
g62
S'D:\\web2py\\applications\\patrimonio\\models\\menu.py'
p88
sg64
(dp89
S'c'
S'undefined'
p90
sS'B'
S"<class 'gluon.html.B'>"
p91
sS'SPAN'
p92
S"<class 'gluon.html.SPAN'>"
p93
sS'builtinFalse'
p94
S'False'
p95
sS'f'
g90
sS'I'
S"<class 'gluon.html.I'>"
p96
sS'LI'
p97
S"<class 'gluon.html.LI'>"
p98
sS'URL'
p99
S'<function URL>'
p100
sS'_class'
p101
g90
ssg70
I152
sg71
(dp102
I146
S"  response.menu += [(SPAN(I(_class='glyphicon glyphicon-home'), B(' Panel Principal')),False,URL(c='default', f='principal')),"
p103
sI147
S"  (SPAN(I(_class=' glyphicon glyphicon-plus'), B(' Cargar Bien')),False,URL(c='nreg', f='consulta')),"
p104
sI148
S"  (SPAN(I(_class=' glyphicon glyphicon-zoom-out'), B(' Consulta')),False,URL(c='consulta', f='menu')),"
p105
sI149
S"  (SPAN(I(_class='glyphicon glyphicon-user'), B('Panel Administrador')),False,URL(c='usuario', f='usuario'))"
p106
sI150
S"  (T('Asuntos Judiciales'), False, None, ["
p107
sI151
S'            (SPAN(I(_class=\'glyphicon glyphicon-plus \'), B(\' Parte de novedades\')),False,URL(c=\'parte\', f=\'home_parte\')),LI(_class="divider"),'
p108
sI152
S'            (SPAN(I(_class=\'glyphicon glyphicon-scale\'), B(\' Parte de accidentes\')),False,URL(c=\'accidentes\', f=\'home_accidentes\')),LI(_class="divider")'
p109
sI153
S'            ])]'
p110
sI154
S''
sI155
S''
ssg83
S'()'
p111
sg85
S'<module>'
p112
sasS'pyver'
p113
S'Python 2.7.9: D:\\web2py\\web2py.exe (prefix: )'
p114
sS'session'
p115
g57
(S'sf\x0c\x00\x00<div><table><tr><td style="font-weight:bold;vertical-align:top;">auth</td><td style="vertical-align:top;">:</td><td><div><table><tr><td style="font-weight:bold;vertical-align:top;">expiration</td><td style="vertical-align:top;">:</td><td><div>2592000</div></td></tr><tr><td style="font-weight:bold;vertical-align:top;">hmac_key</td><td style="vertical-align:top;">:</td><td><div>223307c5-0c0d-4733-833d-9d9bff7a9c96</div></td></tr><tr><td style="font-weight:bold;vertical-align:top;">last_visit</td><td style="vertical-align:top;">:</td><td><div>datetime.datetime(2018, 6, 10, 11, 41, 23, 601000)</div></td></tr><tr><td style="font-weight:bold;vertical-align:top;">remember_me</td><td style="vertical-align:top;">:</td><td><div>True</div></td></tr><tr><td style="font-weight:bold;vertical-align:top;">user</td><td style="vertical-align:top;">:</td><td><div><table><tr><td style="font-weight:bold;vertical-align:top;">created_by</td><td style="vertical-align:top;">:</td><td><div>None</div></td></tr><tr><td style="font-weight:bold;vertical-align:top;">created_on</td><td style="vertical-align:top;">:</td><td><div>datetime.datetime(2018, 5, 7, 9, 14, 54)</div></td></tr><tr><td style="font-weight:bold;vertical-align:top;">email</td><td style="vertical-align:top;">:</td><td><div>juan@ulivar.com</div></td></tr><tr><td style="font-weight:bold;vertical-align:top;">first_name</td><td style="vertical-align:top;">:</td><td><div>juan</div></td></tr><tr><td style="font-weight:bold;vertical-align:top;">id</td><td style="vertical-align:top;">:</td><td><div>3L</div></td></tr><tr><td style="font-weight:bold;vertical-align:top;">is_active</td><td style="vertical-align:top;">:</td><td><div>True</div></td></tr><tr><td style="font-weight:bold;vertical-align:top;">last_name</td><td style="vertical-align:top;">:</td><td><div>ulivar</div></td></tr><tr><td style="font-weight:bold;vertical-align:top;">modified_by</td><td style="vertical-align:top;">:</td><td><div>None</div></td></tr><tr><td style="font-weight:bold;vertical-align:top;">modified_on</td><td style="vertical-align:top;">:</td><td><div>datetime.datetime(2018, 5, 7, 9, 14, 54)</div></td></tr><tr><td style="font-weight:bold;vertical-align:top;">registration_id</td><td style="vertical-align:top;">:</td><td><div></div></td></tr><tr><td style="font-weight:bold;vertical-align:top;">registration_key</td><td style="vertical-align:top;">:</td><td><div></div></td></tr><tr><td style="font-weight:bold;vertical-align:top;">reset_password_key</td><td style="vertical-align:top;">:</td><td><div></div></td></tr><tr><td style="font-weight:bold;vertical-align:top;">username</td><td style="vertical-align:top;">:</td><td><div>juanulivar</div></td></tr></table></div></td></tr><tr><td style="font-weight:bold;vertical-align:top;">user_groups</td><td style="vertical-align:top;">:</td><td><div><table><tr><td style="font-weight:bold;vertical-align:top;">2</td><td style="vertical-align:top;">:</td><td><div>Administrador</div></td></tr></table></div></td></tr></table></div></td></tr><tr><td style="font-weight:bold;vertical-align:top;">flash</td><td style="vertical-align:top;">:</td><td><div>None</div></td></tr></table></div>'
tRp116
sS'etype'
p117
S"<type 'exceptions.TypeError'>"
p118
sS'date'
p119
S'Mon Jun 11 13:39:39 2018'
p120
sS'response'
p121
g57
(S's\xca\x1b\x00\x00<div><table><tr><td style="font-weight:bold;vertical-align:top;">body</td><td style="vertical-align:top;">:</td><td><div>&lt;cStringIO.StringO object at 0x0372A7A0&gt;</div></td></tr><tr><td style="font-weight:bold;vertical-align:top;">cookies</td><td style="vertical-align:top;">:</td><td><div><table><tr><td style="font-weight:bold;vertical-align:top;">session_id_patrimonio</td><td style="vertical-align:top;">:</td><td><div>127.0.0.1-5bded7f9-007f-493b-91f9-f646f9de3301<table><tr><td style="font-weight:bold;vertical-align:top;">comment</td><td style="vertical-align:top;">:</td><td><div></div></td></tr><tr><td style="font-weight:bold;vertical-align:top;">domain</td><td style="vertical-align:top;">:</td><td><div></div></td></tr><tr><td style="font-weight:bold;vertical-align:top;">expires</td><td style="vertical-align:top;">:</td><td><div></div></td></tr><tr><td style="font-weight:bold;vertical-align:top;">httponly</td><td style="vertical-align:top;">:</td><td><div></div></td></tr><tr><td style="font-weight:bold;vertical-align:top;">max-age</td><td style="vertical-align:top;">:</td><td><div></div></td></tr><tr><td style="font-weight:bold;vertical-align:top;">path</td><td style="vertical-align:top;">:</td><td><div>/</div></td></tr><tr><td style="font-weight:bold;vertical-align:top;">secure</td><td style="vertical-align:top;">:</td><td><div></div></td></tr><tr><td style="font-weight:bold;vertical-align:top;">version</td><td style="vertical-align:top;">:</td><td><div></div></td></tr></table></div></td></tr></table></div></td></tr><tr><td style="font-weight:bold;vertical-align:top;">delimiters</td><td style="vertical-align:top;">:</td><td><div><table><tr><td><div>{{</div></td></tr><tr><td><div>}}</div></td></tr></table></div></td></tr><tr><td style="font-weight:bold;vertical-align:top;">files</td><td style="vertical-align:top;">:</td><td><div><table></table></div></td></tr><tr><td style="font-weight:bold;vertical-align:top;">flash</td><td style="vertical-align:top;">:</td><td><div></div></td></tr><tr><td style="font-weight:bold;vertical-align:top;">form_label_separator</td><td style="vertical-align:top;">:</td><td><div></div></td></tr><tr><td style="font-weight:bold;vertical-align:top;">formstyle</td><td style="vertical-align:top;">:</td><td><div>bootstrap3_inline</div></td></tr><tr><td style="font-weight:bold;vertical-align:top;">generic_patterns</td><td style="vertical-align:top;">:</td><td><div><table><tr><td><div>*</div></td></tr></table></div></td></tr><tr><td style="font-weight:bold;vertical-align:top;">google_analytics_id</td><td style="vertical-align:top;">:</td><td><div>None</div></td></tr><tr><td style="font-weight:bold;vertical-align:top;">headers</td><td style="vertical-align:top;">:</td><td><div><table><tr><td style="font-weight:bold;vertical-align:top;">X-Powered-By</td><td style="vertical-align:top;">:</td><td><div>web2py</div></td></tr></table></div></td></tr><tr><td style="font-weight:bold;vertical-align:top;">logo</td><td style="vertical-align:top;">:</td><td><div><a class="brand" href=""><b>Policia de Catamarca -Sistema Patrimonial<span></span></b></a></div></td></tr><tr><td style="font-weight:bold;vertical-align:top;">menu</td><td style="vertical-align:top;">:</td><td><div><table></table></div></td></tr><tr><td style="font-weight:bold;vertical-align:top;">meta</td><td style="vertical-align:top;">:</td><td><div><table><tr><td style="font-weight:bold;vertical-align:top;">author</td><td style="vertical-align:top;">:</td><td><div>Your Name &lt;you@example.com&gt;</div></td></tr><tr><td style="font-weight:bold;vertical-align:top;">generator</td><td style="vertical-align:top;">:</td><td><div>Web2py Web Framework</div></td></tr><tr><td style="font-weight:bold;vertical-align:top;">keywords</td><td style="vertical-align:top;">:</td><td><div>web2py, python, framework</div></td></tr></table></div></td></tr><tr><td style="font-weight:bold;vertical-align:top;">models_to_run</td><td style="vertical-align:top;">:</td><td><div><table><tr><td><div>^\\w+\\.py$</div></td></tr><tr><td><div>^consulta/\\w+\\.py$</div></td></tr><tr><td><div>^consulta/consulta1/\\w+\\.py$</div></td></tr></table></div></td></tr><tr><td style="font-weight:bold;vertical-align:top;">postprocessing</td><td style="vertical-align:top;">:</td><td><div><table></table></div></td></tr><tr><td style="font-weight:bold;vertical-align:top;">session_client</td><td style="vertical-align:top;">:</td><td><div>127.0.0.1</div></td></tr><tr><td style="font-weight:bold;vertical-align:top;">session_cookie_compression_level</td><td style="vertical-align:top;">:</td><td><div>None</div></td></tr><tr><td style="font-weight:bold;vertical-align:top;">session_cookie_expires</td><td style="vertical-align:top;">:</td><td><div>2592000</div></td></tr><tr><td style="font-weight:bold;vertical-align:top;">session_data_name</td><td style="vertical-align:top;">:</td><td><div>session_data_patrimonio</div></td></tr><tr><td style="font-weight:bold;vertical-align:top;">session_file</td><td style="vertical-align:top;">:</td><td><div>&lt;open file &#x27;D:\\\\web2py\\\\applications\\\\patrimonio\\\\sessions\\\\067\\\\1ee\\\\127.0.0.1-5bded7f9-007f-493b-91f9-f646f9de3301&#x27;, mode &#x27;rb+&#x27; at 0x07A09230&gt;</div></td></tr><tr><td style="font-weight:bold;vertical-align:top;">session_filename</td><td style="vertical-align:top;">:</td><td><div>D:\\web2py\\applications\\patrimonio\\sessions\\127.0.0.1-5bded7f9-007f-493b-91f9-f646f9de3301</div></td></tr><tr><td style="font-weight:bold;vertical-align:top;">session_hash</td><td style="vertical-align:top;">:</td><td><div>6790ae546ab55d7b282c907e7af50506</div></td></tr><tr><td style="font-weight:bold;vertical-align:top;">session_id</td><td style="vertical-align:top;">:</td><td><div>127.0.0.1-5bded7f9-007f-493b-91f9-f646f9de3301</div></td></tr><tr><td style="font-weight:bold;vertical-align:top;">session_id_name</td><td style="vertical-align:top;">:</td><td><div>session_id_patrimonio</div></td></tr><tr><td style="font-weight:bold;vertical-align:top;">session_locked</td><td style="vertical-align:top;">:</td><td><div>True</div></td></tr><tr><td style="font-weight:bold;vertical-align:top;">session_masterapp</td><td style="vertical-align:top;">:</td><td><div>patrimonio</div></td></tr><tr><td style="font-weight:bold;vertical-align:top;">session_new</td><td style="vertical-align:top;">:</td><td><div>False</div></td></tr><tr><td style="font-weight:bold;vertical-align:top;">session_storage_type</td><td style="vertical-align:top;">:</td><td><div>file</div></td></tr><tr><td style="font-weight:bold;vertical-align:top;">status</td><td style="vertical-align:top;">:</td><td><div>200</div></td></tr><tr><td style="font-weight:bold;vertical-align:top;">subtitle</td><td style="vertical-align:top;">:</td><td><div>Ver_1.0</div></td></tr><tr><td style="font-weight:bold;vertical-align:top;">title</td><td style="vertical-align:top;">:</td><td><div>Sistema de Partes de Novedades</div></td></tr><tr><td style="font-weight:bold;vertical-align:top;">view</td><td style="vertical-align:top;">:</td><td><div>consulta/consulta1.html</div></td></tr></table></div>'
tRp122
sS'locals'
p123
(dp124
S'Service'
p125
S"<class 'gluon.tools.Service'>"
p126
sS'OBJECT'
p127
S"<class 'gluon.html.OBJECT'>"
p128
sS'datetime'
p129
S"<module 'datetime' (built-in)>"
p130
sg115
S"<Storage {'_formkey[no_table/create]': ['215fe99...gin]': ['17aeb5db-ac94-4750-b7df-2d7b6fcf7884']}>"
p131
sS'LINK'
p132
S"<class 'gluon.html.LINK'>"
p133
sS'BR'
p134
S"<class 'gluon.html.BR'>"
p135
sS'local_import'
p136
S'<function <lambda>>'
p137
sS'OPTGROUP'
p138
S"<class 'gluon.html.OPTGROUP'>"
p139
sS'LI'
p140
S"<class 'gluon.html.LI'>"
p141
sS'PRE'
p142
S"<class 'gluon.html.PRE'>"
p143
sS'IS_INT_IN_RANGE'
p144
S"<class 'gluon.validators.IS_INT_IN_RANGE'>"
p145
sS'IS_LOWER'
p146
S"<class 'gluon.validators.IS_LOWER'>"
p147
sS'IS_STRONG'
p148
S"<class 'gluon.validators.IS_STRONG'>"
p149
sS'cache'
p150
S'<gluon.cache.Cache object>'
p151
sS'IS_IN_DB'
p152
S"<class 'gluon.validators.IS_IN_DB'>"
p153
sS'TAG'
p154
S'<gluon.html.__TAG__ object>'
p155
sS'SQLField'
p156
S"<class 'pydal.objects.Field'>"
p157
sS'mail'
p158
S'<gluon.tools.Mail object>'
p159
sS'BODY'
p160
S"<class 'gluon.html.BODY'>"
p161
sS'IS_DATE_IN_RANGE'
p162
S"<class 'gluon.validators.IS_DATE_IN_RANGE'>"
p163
sS'TH'
p164
S"<class 'gluon.html.TH'>"
p165
sS'URL'
p166
S'<function URL>'
p167
sS'__file__'
p168
S"r'D:\\web2py\\applications\\patrimonio\\models\\menu.py'"
p169
sS'db'
p170
S'<DAL uri="sqlite://storage.sqlite">'
p171
sS'auth'
p172
S'<gluon.tools.Auth object>'
p173
sS'P'
S"<class 'gluon.html.P'>"
p174
sS'TFOOT'
p175
S"<class 'gluon.html.TFOOT'>"
p176
sS'XHTML'
p177
S"<class 'gluon.html.XHTML'>"
p178
sS'SQLDB'
p179
S"<class 'pydal.base.DAL'>"
p180
sS'ON'
p181
S'True'
p182
sS'OL'
p183
S"<class 'gluon.html.OL'>"
p184
sS'TEXTAREA'
p185
S"<class 'gluon.html.TEXTAREA'>"
p186
sS'MENU'
p187
S"<class 'gluon.html.MENU'>"
p188
sS'LOAD'
p189
S'<function LOAD>'
p190
sS'CODE'
p191
S"<class 'gluon.html.CODE'>"
p192
sS'HTTP'
p193
S"<class 'gluon.http.HTTP'>"
p194
sS'HR'
p195
S"<class 'gluon.html.HR'>"
p196
sS'IS_DATETIME'
p197
S"<class 'gluon.validators.IS_DATETIME'>"
p198
sS'HEAD'
p199
S"<class 'gluon.html.HEAD'>"
p200
sS'LABEL'
p201
S"<class 'gluon.html.LABEL'>"
p202
sS'CLEANUP'
p203
S"<class 'gluon.validators.CLEANUP'>"
p204
sS'plugins'
p205
S'<gluon.tools.PluginManager object>'
p206
sS'SELECT'
p207
S"<class 'gluon.html.SELECT'>"
p208
sS'CENTER'
p209
S"<class 'gluon.html.CENTER'>"
p210
sS'Auth'
p211
S"<class 'gluon.tools.Auth'>"
p212
sS'DEVELOPMENT_MENU'
p213
g182
sS'__builtins__'
p214
S"{'ArithmeticError': <type 'exceptions.ArithmeticError'>, 'AssertionError': <type 'exceptions.AssertionError'>, 'AttributeError': <type 'exceptions.AttributeError'>, 'BaseException': <type 'exceptions.BaseException'>, 'BufferError': <type 'exceptions.BufferError'>, 'BytesWarning': <type 'exceptions.BytesWarning'>, 'DeprecationWarning': <type 'exceptions.DeprecationWarning'>, 'EOFError': <type 'exceptions.EOFError'>, 'Ellipsis': Ellipsis, 'EnvironmentError': <type 'exceptions.EnvironmentError'>, ...}"
p215
sS'HTML'
p216
S"<class 'gluon.html.HTML'>"
p217
sS'SQLFORM'
p218
S"<class 'gluon.sqlhtml.SQLFORM'>"
p219
sS'EM'
p220
S"<class 'gluon.html.EM'>"
p221
sS'redirect'
p222
S'<function redirect>'
p223
sS'FIELDSET'
p224
S"<class 'gluon.html.FIELDSET'>"
p225
sS'IS_EQUAL_TO'
p226
S"<class 'gluon.validators.IS_EQUAL_TO'>"
p227
sS'embed64'
p228
S'<function embed64>'
p229
sS'IS_LIST_OF'
p230
S"<class 'gluon.validators.IS_LIST_OF'>"
p231
sS'__name__'
p232
S"'__restricted__'"
p233
sS'EMBED'
p234
S"<class 'gluon.html.EMBED'>"
p235
sS'_'
S'<function _>'
p236
sS'FORM'
p237
S"<class 'gluon.html.FORM'>"
p238
sS'myconf'
p239
S"{'forms': {'formstyle': 'bootstrap3_inline', 'se...': {'names': 'localhost:*, 127.0.0.1:*, *:*, *'}}"
p240
sS'H2'
p241
S"<class 'gluon.html.H2'>"
p242
sS'H3'
p243
S"<class 'gluon.html.H3'>"
p244
sS'AppConfig'
p245
S'<function AppConfig>'
p246
sS'H1'
p247
S"<class 'gluon.html.H1'>"
p248
sS'H6'
p249
S"<class 'gluon.html.H6'>"
p250
sS'H4'
p251
S"<class 'gluon.html.H4'>"
p252
sS'H5'
p253
S"<class 'gluon.html.H5'>"
p254
sS'UL'
p255
S"<class 'gluon.html.UL'>"
p256
sS'IS_UPPER'
p257
S"<class 'gluon.validators.IS_UPPER'>"
p258
sS'xmlescape'
p259
S'<function xmlescape>'
p260
sS'IS_TIME'
p261
S"<class 'gluon.validators.IS_TIME'>"
p262
sS'OPTION'
p263
S"<class 'gluon.html.OPTION'>"
p264
sS'TITLE'
p265
S"<class 'gluon.html.TITLE'>"
p266
sS'CRYPT'
p267
S"<class 'gluon.validators.CRYPT'>"
p268
sS'IS_EMPTY_OR'
p269
S"<class 'gluon.validators.IS_EMPTY_OR'>"
p270
sS'MARKMIN'
p271
S"<class 'gluon.html.MARKMIN'>"
p272
sS'INPUT'
p273
S"<class 'gluon.html.INPUT'>"
p274
sS'STRONG'
p275
S"<class 'gluon.html.STRONG'>"
p276
sS'COL'
p277
S"<class 'gluon.html.COL'>"
p278
sS'service'
p279
S'<gluon.tools.Service object>'
p280
sS'SCRIPT'
p281
S"<class 'gluon.html.SCRIPT'>"
p282
sS'TABLE'
p283
S"<class 'gluon.html.TABLE'>"
p284
sS'IS_IPV4'
p285
S"<class 'gluon.validators.IS_IPV4'>"
p286
sS'IS_LENGTH'
p287
S"<class 'gluon.validators.IS_LENGTH'>"
p288
sS'IS_IPV6'
p289
S"<class 'gluon.validators.IS_IPV6'>"
p290
sS'XML'
p291
S"<class 'gluon.html.XML'>"
p292
sS'B'
S"<class 'gluon.html.B'>"
p293
sS'IMG'
p294
S"<class 'gluon.html.IMG'>"
p295
sS'SQLTABLE'
p296
S"<class 'gluon.sqlhtml.SQLTABLE'>"
p297
sS'IS_MATCH'
p298
S"<class 'gluon.validators.IS_MATCH'>"
p299
sS'IS_ALPHANUMERIC'
p300
S"<class 'gluon.validators.IS_ALPHANUMERIC'>"
p301
sS'SPAN'
p302
S"<class 'gluon.html.SPAN'>"
p303
sS'IS_JSON'
p304
S"<class 'gluon.validators.IS_JSON'>"
p305
sS'IS_IPADDRESS'
p306
S"<class 'gluon.validators.IS_IPADDRESS'>"
p307
sS'IS_SLUG'
p308
S"<class 'gluon.validators.IS_SLUG'>"
p309
sS'BEAUTIFY'
p310
S"<class 'gluon.html.BEAUTIFY'>"
p311
sS'META'
p312
S"<class 'gluon.html.META'>"
p313
sS'BUTTON'
p314
S"<class 'gluon.html.BUTTON'>"
p315
sS'IS_DATE'
p316
S"<class 'gluon.validators.IS_DATE'>"
p317
sS'IS_EMAIL'
p318
S"<class 'gluon.validators.IS_EMAIL'>"
p319
sS'IS_NOT_EMPTY'
p320
S"<class 'gluon.validators.IS_NOT_EMPTY'>"
p321
sg56
S"<Storage {'_vars': None, 'function': 'consulta1'...lder': 'D:\\\\web2py\\\\applications\\\\patrimonio\\\\'}>"
p322
sS'TBODY'
p323
S"<class 'gluon.html.TBODY'>"
p324
sS'CAT'
p325
S"<class 'gluon.html.CAT'>"
p326
sS'Field'
p327
S"<class 'pydal.objects.Field'>"
p328
sS'IS_LIST_OF_EMAILS'
p329
S"<class 'gluon.validators.IS_LIST_OF_EMAILS'>"
p330
sS'DIV'
p331
S"<class 'gluon.html.DIV'>"
p332
sS'LEGEND'
p333
S"<class 'gluon.html.LEGEND'>"
p334
sS'COLGROUP'
p335
S"<class 'gluon.html.COLGROUP'>"
p336
sS'DAL'
p337
S"<class 'pydal.base.DAL'>"
p338
sS'ASSIGNJS'
p339
S'<function ASSIGNJS>'
p340
sS'TR'
p341
S"<class 'gluon.html.TR'>"
p342
sS'__package__'
p343
S'None'
p344
sS'IFRAME'
p345
S"<class 'gluon.html.IFRAME'>"
p346
sS'TD'
p347
S"<class 'gluon.html.TD'>"
p348
sS'PluginManager'
p349
S"<class 'gluon.tools.PluginManager'>"
p350
sS'IS_URL'
p351
S"<class 'gluon.validators.IS_URL'>"
p352
sS'A'
S"<class 'gluon.html.A'>"
p353
sS'STYLE'
p354
S"<class 'gluon.html.STYLE'>"
p355
sS'IS_DATETIME_IN_RANGE'
p356
S"<class 'gluon.validators.IS_DATETIME_IN_RANGE'>"
p357
sS'IS_IMAGE'
p358
S"<class 'gluon.validators.IS_IMAGE'>"
p359
sS'I'
S"<class 'gluon.html.I'>"
p360
sS'IS_NOT_IN_DB'
p361
S"<class 'gluon.validators.IS_NOT_IN_DB'>"
p362
sg121
S"<Storage {'body': <cStringIO.StringO object at 0... 0x0759B830>, 'view': 'consulta/consulta1.html'}>"
p363
sS'THEAD'
p364
S"<class 'gluon.html.THEAD'>"
p365
sS'ANY_OF'
p366
S"<class 'gluon.validators.ANY_OF'>"
p367
sS'IS_NULL_OR'
p368
S"<class 'gluon.validators.IS_EMPTY_OR'>"
p369
sS'IS_FLOAT_IN_RANGE'
p370
S"<class 'gluon.validators.IS_FLOAT_IN_RANGE'>"
p371
sS'IS_EXPR'
p372
S"<class 'gluon.validators.IS_EXPR'>"
p373
sS'IS_IN_SET'
p374
S"<class 'gluon.validators.IS_IN_SET'>"
p375
sS'IS_UPLOAD_FILENAME'
p376
S"<class 'gluon.validators.IS_UPLOAD_FILENAME'>"
p377
sS'IS_DECIMAL_IN_RANGE'
p378
S"<class 'gluon.validators.IS_DECIMAL_IN_RANGE'>"
p379
sS'TT'
p380
S"<class 'gluon.html.TT'>"
p381
sS'T'
S'<gluon.languages.translator object>'
p382
sssS'traceback'
p383
S'Traceback (most recent call last):\n  File "D:\\web2py\\gluon\\restricted.py", line 227, in restricted\n    exec ccode in environment\n  File "D:\\web2py\\applications\\patrimonio\\models\\menu.py", line 152, in <module>\n    (SPAN(I(_class=\'glyphicon glyphicon-scale\'), B(\' Parte de accidentes\')),False,URL(c=\'accidentes\', f=\'home_accidentes\')),LI(_class="divider")\nTypeError: \'tuple\' object is not callable\n'
p384
s.