(dp1
S'output'
p2
S'Unable to open included view file: D:\\backup servidor\\uli\\web2py\\web2py\\applications\\patrimonio\\views\\layout_modal.html'
p3
sS'layer'
p4
S'ParserContainer'
p5
sS'code'
p6
S'{{extend \'layout_modal.html\'}}\r\n\r\n<br>\r\n\r\n<!DOCTYPE html>\r\n<html lang="en">\r\n<head>\r\n\r\n<script type="text/javascript">\r\n$(document).ready(function(){\r\n  \r\n    $("#myModal").modal(\'show\');\r\n  \r\n});\r\n</script>\r\n<style type="text/css">\r\n    #myModal {\r\n                \r\n                top:25%;\r\n                right:5%;\r\n                \r\n                outline: none;\r\n\r\n                \r\n             }\r\n    .modal-header{\r\n                background: #265a88;}\r\n    .modal-title{\r\n        color: #fff;\r\n    }   \r\n</style>\r\n</head>\r\n<body>\r\n<div class="bs-example">\r\n    <!-- Button HTML (to Trigger Modal) -->\r\n    \r\n    \r\n    <!-- Modal HTML -->\r\n    <div id="myModal" class="modal fade" data-backdrop="false">\r\n        <div class="modal-dialog modal-lg">\r\n            <div class="modal-content">\r\n                <div class="modal-header">\r\n                    \r\n                    <h4 class="modal-title"><img src="{{=URL(\'static\',\'images/atencion.png\')}}" alt=""> CARGA NUEVO DELITO  <span class="label label-danger"></span></h4>\r\n                </div>\r\n                <div class="modal-body">\r\n                \r\n                    \r\n                     \r\n                    \r\n                   \r\n                    \r\n                </div>\r\n                <div class="modal-footer">\r\n                    \r\n                    <a href="{{=URL(c=\'parte\',f=\'home_parte\')}}" class="btn btn-danger" role="button"><span class="glyphicon glyphicon-hand-left" aria-hidden="true"></span> Cancelar</a>\r\n                    \r\n                    \r\n                </div>\r\n            </div>\r\n        </div>\r\n    </div>\r\n</div>\r\n</body>\r\n</html>  \r\n\r\n'
p7
sS'snapshot'
p8
(dp9
S'exception'
p10
(dp11
S'__getslice__'
p12
S"<method-wrapper '__getslice__' of exceptions.IOError object>"
p13
sS'__str__'
p14
S"<method-wrapper '__str__' of exceptions.IOError object>"
p15
sS'__reduce__'
p16
S'<built-in method __reduce__ of exceptions.IOError object>'
p17
sS'__dict__'
p18
S'{}'
p19
sS'__sizeof__'
p20
S'<built-in method __sizeof__ of exceptions.IOError object>'
p21
sS'__init__'
p22
S"<method-wrapper '__init__' of exceptions.IOError object>"
p23
sS'__setattr__'
p24
S"<method-wrapper '__setattr__' of exceptions.IOError object>"
p25
sS'__reduce_ex__'
p26
S'<built-in method __reduce_ex__ of exceptions.IOError object>'
p27
sS'__new__'
p28
S'<built-in method __new__ of type object>'
p29
sS'errno'
p30
S'2'
sS'__format__'
p31
S'<built-in method __format__ of exceptions.IOError object>'
p32
sS'__class__'
p33
S"<type 'exceptions.IOError'>"
p34
sS'filename'
p35
S"r'D:\\backup servidor\\uli\\web2py\\web2py\\applications\\patrimonio\\views\\layout_modal.html'"
p36
sS'__doc__'
p37
S"'I/O operation failed.'"
p38
sS'__getitem__'
p39
S"<method-wrapper '__getitem__' of exceptions.IOError object>"
p40
sS'__setstate__'
p41
S'<built-in method __setstate__ of exceptions.IOError object>'
p42
sS'__getattribute__'
p43
S"<method-wrapper '__getattribute__' of exceptions.IOError object>"
p44
sS'args'
p45
S"(2, 'No such file or directory')"
p46
sS'__subclasshook__'
p47
S'<built-in method __subclasshook__ of type object>'
p48
sS'__unicode__'
p49
S'<built-in method __unicode__ of exceptions.IOError object>'
p50
sS'strerror'
p51
S"'No such file or directory'"
p52
sS'__delattr__'
p53
S"<method-wrapper '__delattr__' of exceptions.IOError object>"
p54
sS'__repr__'
p55
S"<method-wrapper '__repr__' of exceptions.IOError object>"
p56
sS'__hash__'
p57
S"<method-wrapper '__hash__' of exceptions.IOError object>"
p58
ssS'evalue'
p59
S"[Errno 2] No such file or directory: 'D:\\\\backup servidor\\\\uli\\\\web2py\\\\web2py\\\\applications\\\\patrimonio\\\\views\\\\layout_modal.html'"
p60
sS'frames'
p61
(lp62
(dp63
S'file'
p64
S'D:\\backup servidor\\uli\\web2py\\web2py\\gluon\\template.py'
p65
sS'dump'
p66
(dp67
S'builtinopen'
p68
S'<built-in function open>'
p69
sS'fileobj'
p70
S'undefined'
p71
sS'filepath'
p72
S"r'D:\\backup servidor\\uli\\web2py\\web2py\\applications\\patrimonio\\views\\layout_modal.html'"
p73
ssS'lnum'
p74
I450
sS'lines'
p75
(dp76
I448
S'        # try to read the text.'
p77
sI449
S'        try:'
p78
sI450
S"            fileobj = open(filepath, 'rb')"
p79
sI451
S'            text = fileobj.read()'
p80
sI452
S'            fileobj.close()'
p81
sI453
S'        except IOError:'
p82
sI454
S"            self._raise_error('Unable to open included view file: ' + filepath)"
p83
sI445
S'        # Get the path of the file on the system.'
p84
sI446
S'        filepath = self.path and os.path.join(self.path, filename) or filename'
p85
sI447
S''
ssS'call'
p86
S"(self=<gluon.template.TemplateParser object>, filename='layout_modal.html')"
p87
sS'func'
p88
S'_get_file_text'
p89
sasS'pyver'
p90
S'Python 2.7.9: D:\\backup servidor\\uli\\web2py\\web2py\\web2py.exe (prefix: )'
p91
sS'etype'
p92
S"<type 'exceptions.IOError'>"
p93
sS'date'
p94
S'Wed Apr 04 11:30:39 2018'
p95
sS'locals'
p96
(dp97
S'self'
p98
S'<gluon.template.TemplateParser object>'
p99
sS'filepath'
p100
S"r'D:\\backup servidor\\uli\\web2py\\web2py\\applications\\patrimonio\\views\\layout_modal.html'"
p101
sS'context'
p102
S"{'A': <class 'gluon.html.A'>, 'ANY_OF': <class 'gluon.validators.ANY_OF'>, 'ASSIGNJS': <function ASSIGNJS>, 'AppConfig': <function AppConfig>, 'Auth': <class 'gluon.tools.Auth'>, 'B': <class 'gluon.html.B'>, 'BEAUTIFY': <class 'gluon.html.BEAUTIFY'>, 'BODY': <class 'gluon.html.BODY'>, 'BR': <class 'gluon.html.BR'>, 'BUTTON': <class 'gluon.html.BUTTON'>, ...}"
p103
sg35
S"'layout_modal.html'"
p104
sssS'traceback'
p105
S'Traceback (most recent call last):\n  File "D:\\backup servidor\\uli\\web2py\\web2py\\gluon\\template.py", line 450, in _get_file_text\n    fileobj = open(filepath, \'rb\')\nIOError: [Errno 2] No such file or directory: \'D:\\\\backup servidor\\\\uli\\\\web2py\\\\web2py\\\\applications\\\\patrimonio\\\\views\\\\layout_modal.html\'\n'
p106
s.