(dp1
S'output'
p2
S"<type 'exceptions.IndexError'> list index out of range"
p3
sS'layer'
p4
S'D:\\backup servidor\\uli\\web2py\\web2py\\applications\\patrimonio\\views\\nreg/nreg.html'
p5
sS'code'
p6
S'response.write(\'<!DOCTYPE html>\\n<!--[if (gt IE 9)|!(IE)]><!--> <html class="no-js" lang="\', escape=False)\nresponse.write(T.accepted_language or \'en\')\nresponse.write(\'"> <!--<![endif]-->\\n  <head>\\n    <meta charset="utf-8">\\n    <!-- www.phpied.com/conditional-comments-block-downloads/ -->\\n    <!-- Always force latest IE rendering engine\\n         (even in intranet) & Chrome Frame\\n         Remove this if you use the .htaccess -->\\n    <meta http-equiv="X-UA-Compatible" content="IE=edge\', escape=False)\nresponse.write(not request.is_local and \',chrome=1\' or \'\')\nresponse.write(\'">\\n    <!--  Mobile Viewport Fix\\n          j.mp/mobileviewport & davidbcalhoun.com/2010/viewport-metatag\\n          device-width: Occupy full width of the screen in its current orientation\\n          initial-scale = 1.0 retains dimensions instead of zooming out if page height > device height\\n          user-scalable = yes allows the user to zoom in -->\\n    <meta name="viewport" content="width=device-width, initial-scale=1.0">\\n    <title>\', escape=False)\nresponse.write(response.title or request.application)\nresponse.write(\'</title>\\n    <!-- http://dev.w3.org/html5/markup/meta.name.html -->\\n    <meta name="application-name" content="\', escape=False)\nresponse.write(request.application)\nresponse.write(\'">\\n    <!-- Speaking of Google, don\\\'t forget to set your site up:\\n         http://google.com/webmasters -->\\n    <meta name="google-site-verification" content="">\\n    <!-- include stylesheets -->\\n    <link rel="stylesheet" href="\', escape=False)\nresponse.write(URL(\'static\',\'css/bootstrap.min.css\'))\nresponse.write(\'"/>\\n    <link rel="stylesheet" href="\', escape=False)\nresponse.write(URL(\'static\',\'css/web2py-bootstrap3.css\'))\nresponse.write(\'"/>\\n    <link rel="shortcut icon" href="\', escape=False)\nresponse.write(URL(\'static\',\'images/favicon.ico\'))\nresponse.write(\'" type="image/x-icon">\\n    <link rel="apple-touch-icon" href="\', escape=False)\nresponse.write(URL(\'static\',\'images/favicon.png\'))\nresponse.write(\'">\\n    <!-- All JavaScript at the bottom, except for Modernizr which enables\\n         HTML5 elements & feature detects -->\\n    <script src="\', escape=False)\nresponse.write(URL(\'static\',\'js/modernizr-2.8.3.min.js\'))\nresponse.write(\'"></script>\\n    <!--[if lt IE 9]>\\n        <script src="\', escape=False)\nresponse.write(URL(\'static\',\'js/respond-1.4.2.min.js\'))\nresponse.write(\'"></script>\\n        <![endif]-->\\n    <!-- Favicons -->\\n    \', escape=False)\nresponse.write(\'<script type="text/javascript"><!--\\n    // These variables are used by the web2py_ajax_init function in web2py_ajax.js (which is loaded below).\\n    var w2p_ajax_confirm_message = "\', escape=False)\nresponse.write(T(\'Are you sure you want to delete this object?\'))\nresponse.write(\'";\\n    var w2p_ajax_disable_with_message = "\', escape=False)\nresponse.write(T(\'Working...\'))\nresponse.write(\'";\\n    var w2p_ajax_date_format = "\', escape=False)\nresponse.write(T(\'%Y-%m-%d\'))\nresponse.write(\'";\\n    var w2p_ajax_datetime_format = "\', escape=False)\nresponse.write(T(\'%Y-%m-%d %H:%M:%S\'))\nresponse.write(\'";\\n    var ajax_error_500 = \\\'\', escape=False)\nresponse.write(T.M(\'An error occured, please [[reload %s]] the page\') % URL(args=request.args, vars=request.get_vars))\nresponse.write("\'\\n    //--></script>\\n", escape=False)\nresponse.files.insert(0,URL(\'static\',\'js/jquery.js\'))\nresponse.files.insert(1,URL(\'static\',\'css/calendar.css\'))\nresponse.files.insert(2,URL(\'static\',\'js/calendar.js\'))\nresponse.files.insert(3,URL(\'static\',\'js/web2py.js\'))\nresponse.include_meta()\nresponse.include_files()\nresponse.write(\'\\n\', escape=False)\nresponse.write(\' <!-- this includes jquery.js, calendar.js/.css and web2py.js -->\\n    \', escape=False)\nresponse.write(\'\\n    \', escape=False)\n# using sidebars need to know what sidebar you want to use\nmc0 = \'col-md-12\'\nmc1 = \'col-md-9\'\nmc2 = \'col-md-6\'\nleft_sidebar_enabled = globals().get(\'left_sidebar_enabled\', False)\nright_sidebar_enabled = globals().get(\'right_sidebar_enabled\', False)\nmiddle_column = {0: mc0, 1: mc1, 2: mc2}[\n(left_sidebar_enabled and 1 or 0)+(right_sidebar_enabled and 1 or 0)]\nresponse.write(\'\\n  </head>\\n  <body>\\n    <!--[if lt IE 8]><p class="browserupgrade">You are using an <strong>outdated</strong> browser. Please <a href="http://browsehappy.com/">upgrade your browser</a> to improve your experience.</p><![endif]-->\\n    <div class="w2p_flash alert alert-dismissable">\', escape=False)\nresponse.write(response.flash or \'\')\nresponse.write(\'</div>\\n    <!-- Navbar ======================================= -->\\n    <nav class="navbar navbar-default navbar-fixed-top" role="navigation">\\n      <div class="container-fluid">\\n        <div class="navbar-header">\\n          <button type="button" class="navbar-toggle" data-toggle="collapse" data-target=".navbar-collapse">\\n            <span class="sr-only">Toggle navigation</span>\\n            <span class="icon-bar"></span>\\n            <span class="icon-bar"></span>\\n            <span class="icon-bar"></span>\\n          </button>\\n          <a class="navbar-brand" href="\', escape=False)\nresponse.write(URL(r=request,f=\'index\'))\nresponse.write(\'">Polic\\xc3\\xada de la Provincia de Catamarca </a>\\n         \\n        </div>\\n        <div class="collapse navbar-collapse navbar-ex1-collapse">\\n          <!-- Tengo que sacar estas lineas para eliminar el menu (por eso creo otra layout_login)-->\\n          <ul class="nav navbar-nav navbar-right">\\n            \', escape=False)\nresponse.write(\'auth\' in globals() and auth.navbar(\'Welcome\',mode=\'dropdown\') or \'\')\nresponse.write(\'\\n          </ul>\\n          \', escape=False)\nif response.menu:\n    response.write(\'\\n          \', escape=False)\n    response.write(MENU(response.menu, _class=\'nav navbar-nav\',li_class=\'dropdown\',ul_class=\'dropdown-menu\'))\n    response.write(\'\\n          \', escape=False)\n    pass\nresponse.write(\'\\n\\n        </div>\\n      </div>\\n    </nav>\\n    <!-- Masthead ===================================== -->    \\n    \', escape=False)\nresponse.write(\'\\n    \', escape=False)\nresponse.write(\'\\n    <!-- Main ========================================= -->\\n    <!-- Begin page content -->\\n    <div class="container-fluid main-container">\\n      \', escape=False)\nif left_sidebar_enabled:\n    response.write(\'\\n        <div class="col-md-3 left-sidebar">\\n            \', escape=False)\n    response.write(\'\\n            <h3>Left Sidebar</h3>\\n            <p></p>\\n            \', escape=False)\n    response.write(\'\\n        </div>\\n      \', escape=False)\n    pass\nresponse.write(\'\\n\\n      <div class="\', escape=False)\nresponse.write(middle_column)\nresponse.write(\'">\\n        \', escape=False)\nresponse.write(\'\\n        \', escape=False)\nresponse.write(\'\\r\\n<script type="text/javascript">\\r\\n$(document).ready(function(){\\r\\n  \\r\\n    $("#myModal").modal(\\\'show\\\');\\r\\n  \\r\\n});\\r\\n</script>\\r\\n<style type="text/css">\\r\\n    #myModal {\\r\\n                \\r\\n                top:10%;\\r\\n                right:5%;\\r\\n                \\r\\n                outline: none;\\r\\n\\r\\n                \\r\\n             }\\r\\n    .modal-header{\\r\\n                background: #265a88;}\\r\\n    .modal-title{\\r\\n        color: #fff;\\r\\n    }   \\r\\n</style>\\r\\n\\r\\n  \\r\\n\\r\\n<div class="container">\\r\\n\\t<form method="post">\\r\\n    <div class="row">\\r\\n    \\t<div class="col-md-12">\\r\\n        \\r\\n            <div class="panel panel-primary well">\\r\\n              <div class="panel-heading">Estacion Carga</div>\\r\\n              <div class="panel-body">\\r\\n                    <div class="row">\\r\\n\\r\\n\\r\\n\\r\\n\\r\\n\\r\\n\\t\\t\\t\\t\\t\\t<div class="row-fluid">\\r\\n\\r\\n\\r\\n\\t\\t\\r\\n\\t\\t\\t\\t\\t\\t<div class="col-sm-6 col-md-4">\\r\\n\\t\\t\\t\\t\\t\\t<div class="form-group">\\r\\n\\t\\t\\t\\t\\t\\r\\n\\t\\t\\t\\t\\r\\n\\t\\t\\t\\t\\t\\t<label for="email">Dependencia:</label>\\r\\n\\t\\t\\t\\t\\t\\t\', escape=False)\nresponse.write(form.custom.widget.dependencia)\nresponse.write(\'\\r\\n\\t\\t\\t\\t\\t\\t</div>\\r\\n\\t\\t\\t\\t<div ><a href="\', escape=False)\nresponse.write(URL(c=\'cargar\',f=\'cargar_dependencia\'))\nresponse.write(\'" class="btn btn-info btn-sm pull-right" role="button" ><span class="glyphicon glyphicon-plus"></span>Agregar Dependencias\\r\\n\\t\\t\\t\\t</a></div><br>\\r\\n\\r\\n\\r\\n\\t\\t\\t\\t<div class="form-group">\\r\\n\\t\\t\\t\\t\\t<label for="email">Tipo:</label>\\r\\n\\t\\t\\t\\t\\t\', escape=False)\nresponse.write(form.custom.widget.tipo)\nresponse.write(\'\\r\\n\\t\\t\\t\\t</div>\\r\\n\\t\\t\\t\\t<div ><a href="\', escape=False)\nresponse.write(URL(c=\'cargar\',f=\'cargar_tipo\'))\nresponse.write(\'" class="btn btn-info btn-sm pull-right" role="button"><span class="glyphicon glyphicon-plus"></span>   Agregar Tipo\\r\\n\\t\\t\\t\\t</a></div><br>\\r\\n\\r\\n\\t\\t\\t\\t<div class="form-group">\\r\\n\\t\\t\\t\\t\\t<label for="email">Marca:</label>\\r\\n\\t\\t\\t\\t\\t\', escape=False)\nresponse.write(form.custom.widget.marca)\nresponse.write(\'\\r\\n\\t\\t\\t\\t</div>\\r\\n\\t\\t\\t\\t<div ><a href="\', escape=False)\nresponse.write(URL(c=\'cargar\',f=\'cargar_marca\'))\nresponse.write(\'" class="btn btn-info btn-sm pull-right" role="button"><span class="glyphicon glyphicon-plus"></span>Agregar Marca\\r\\n\\t\\t\\t\\t</a></div><br>\\r\\n\\r\\n\\t\\t\\t\\t\\r\\n\\t\\t\\t\\t<div class="form-group">\\r\\n\\t\\t\\t\\t\\t<label for="canti">Modelo:</label>\\r\\n\\t\\t\\t\\t\\t<input type="text" name="modelo" class="form-control" id="modelo">\\r\\n\\t\\t\\t\\t</div>\\r\\n\\t\\t\\t\\t<div class="form-group">\\r\\n\\t\\t\\t\\t\\t<label for="canti">Numero de Serie:</label>\\r\\n\\t\\t\\t\\t\\t<input type="text" name="serie" class="form-control" id="serie">\\r\\n\\t\\t\\t\\t</div>\\r\\n\\t\\t\\t\\t\\r\\n\\t\\t\\t\\t<div class="form-group">\\r\\n\\t\\t\\t\\t\\t<button type="button" class="btn btn-primary" data-toggle="modal" data-target=".bs-example-modal-lg">Generar Numero de Serie</button>\\r\\n\\r\\n\\t\\t\\t\\t\\t\\t<div class="modal fade bs-example-modal-lg" tabindex="-1" role="dialog" aria-labelledby="myLargeModalLabel">\\r\\n  \\t\\t\\t\\t\\t\\t<div class="modal-dialog modal-lg" role="document">\\r\\n    \\t\\t\\t\\t\\t<div class="modal-content">\\r\\n    \\t\\t\\t\\t\\t\\t<!-- encabezado-->\\r\\n      \\t\\t\\t\\t\\t\\t<div class="modal-header"> \\r\\n      \\t\\t\\t\\t\\t\\t\\t<!--<button type="button" class="close" data-dismiss="modal" aria-hidden="false" >&times;</button>-->\\r\\n      \\t\\t\\t\\t\\t\\t\\t<h3 class="modal-title">Su n\\xc3\\xb9mero de serie se genero y es: </h3>\\r\\n      \\t\\t\\t\\t\\t\\t</div>\\r\\n      \\t\\t\\t\\t\\t\\t<!-- contenido de la ventana-->\\r\\n      \\t\\t\\t\\t\\t\\t<div class="moda-body">\\r\\n      \\t\\t\\t\\t\\t\\t\\t<p>\', escape=False)\nresponse.write(request.args[0])\nresponse.write(\'</p>\\r\\n      \\t\\t\\t\\t\\t\\t</div>\\r\\n      \\t\\t\\t\\t\\t\\t<!-- fotter de la ventana-->\\r\\n      \\t\\t\\t\\t\\t\\t<div class="modal-footer">\\r\\n      \\t\\t\\t\\t\\t\\t\\t<button type="button" class="btn btn-primary" data-dismiss="modal" href="form" >cerrar</button>\\r\\n      \\t\\t\\t\\t\\t\\t</div>\\r\\n    \\t\\t\\t\\t\\t</div>\\r\\n  \\t\\t\\t\\t\\t\\t</div>\\r\\n\\t\\t\\t\\t\\t\\t</div>\\r\\n\\t\\t\\t\\t\\t</div>\\r\\n\\t\\t\\t\\t\\r\\n\\t\\t\\t\\t<br>\\r\\n\\t\\t\\t\\t<br> \\r\\n\\r\\n\\t\\t\\t\\t\\t\\r\\n\\t\\t\\t\\t\\t\\r\\n\\r\\n\\t\\t\\t\\t\\r\\n\\t\\t\\t\\t\\t  \\r\\n\\r\\n\\t\\t\\t</div>\\r\\n\\t\\t\\t<button type="submit" class="btn btn-info pull-right">Enviar Datos</button>\\r\\n\\r\\n         \\t\\t\\t <input type="hidden" name="_formname" value="prueba"/>\\r\\n\\r\\n\\r\\n\\t\\t\\t\\t\\r\\n\\t\\t</div>\\r\\n\\r\\n\\t\\r\\n\\t\\t<div class="col-md-4">\\r\\n\\t\\t\\t<div class="form-group">\\r\\n\\t\\t\\t\\t\\t\\r\\n\\t\\t\\t\\r\\n\\r\\n\\t\\t\\t\\r\\n\\t\\t\\t\\r\\n\\t\\t\\t\\r\\n\\r\\n\\t\\t\\t\\t\\t\\r\\n\\t\\t\\t\\t\\t<label>Fecha de alta del Equipo:</label>\\r\\n\\t\\t\\t\\t\\t<div class=\\\'input-group date\\\' id=\\\'datetimepicker1\\\'>\\r\\n\\t\\t\\t\\t\\t\\t\', escape=False)\nresponse.write(form.custom.widget.frecibe)\nresponse.write(\'\\r\\n\\t\\t\\t\\t\\t\\t<span class="input-group-addon">\\r\\n\\t\\t\\t\\t\\t\\t\\t<span class="glyphicon glyphicon-calendar"></span>\\r\\n\\r\\n\\t\\t\\t\\t\\t\\t</span>\\r\\n\\r\\n\\r\\n\\r\\n\\r\\n\\r\\n\\r\\n\\t\\t\\t</div>\\r\\n\\r\\n\\r\\n\\r\\n\\r\\n\\t\\t\\t\\r\\n\\t\\t\\t\\t\\t\\r\\n\\t\\t\\t\\t\\t</div>\\r\\n\\t\\t\\t\\t\\t\\r\\n\\t\\t\\t\\t\\t<div class="form-group">\\r\\n\\t\\t\\t\\t\\t\\t<label for="canti">Recibe:</label>\\r\\n\\t\\t\\t\\t\\t\\t<textarea name="qrebe" rows="6" cols="40"></textarea>\\r\\n\\t\\t\\t\\t\\t</div>\\r\\n\\r\\n\\r\\n\\t\\t\\t\\t\\t<div class="form-group">\\r\\n\\t\\t\\t\\t\\t\\t<label for="canti">Descripcion:</label>\\r\\n\\t\\t\\t\\t\\t\\t<textarea name="descrip1" rows="6" cols="40"></textarea>\\r\\n\\t\\t\\t\\t\\t</div>\\r\\n\\t\\t\\t\\t\\t<div class="form-group">\\r\\n\\t\\t\\t\\t\\t<label for="email">Estado:</label>\\r\\n\\t\\t\\t\\t\\t\', escape=False)\nresponse.write(form.custom.widget.estado)\nresponse.write(\'\\r\\n\\t\\t\\t\\t\\t</div>\\r\\n\\r\\n\\t\\t\\t\\t\\t<div class="form-group">\\r\\n\\t\\t\\t\\t\\t<input type="file" name="tu_imagen" id="archivo" size="40">\\r\\n\\r\\n\\t\\t\\t\\t\\t<input type="submit" name="boton" value="Subir archivo" id="boton">\\r\\n\\r\\n\\r\\n\\r\\n\\r\\n\\t\\t\\t\\t\\t\\r\\n\\t\\t\\t\\t\\t\\r\\n\\t\\t\\t\\t\\t\\r\\n\\t\\t\\t\\t\\t\\r\\n\\t\\t\\t\\t\\t\\r\\n\\r\\n\\t\\t\\t</div>\\r\\n\\r\\n\\t\\t\\r\\n\\t</div>\\r\\n\\r\\n\\r\\n\\t<div class="col-md-4">\\r\\n\\t\\t\\t<div class="form-group">\\r\\n\\t\\t\\t\\t\\t\\r\\n\\t\\t\\t\\r\\n\\r\\n\\t\\t\\t\\r\\n\\t\\t\\t\\r\\n\\t\\t\\t\\r\\n\\r\\n\\t\\t\\t\\t\\t\\r\\n\\t\\t\\t\\t\\t<label>Fecha de Baja del Equipo:</label>\\r\\n\\t\\t\\t\\t\\t<div class=\\\'input-group date\\\' id=\\\'datetimepicker1\\\'>\\r\\n\\t\\t\\t\\t\\t\\t\', escape=False)\nresponse.write(form.custom.widget.fbaja)\nresponse.write(\'\\r\\n\\t\\t\\t\\t\\t\\t<span class="input-group-addon">\\r\\n\\t\\t\\t\\t\\t\\t\\t<span class="glyphicon glyphicon-calendar"></span>\\r\\n\\r\\n\\t\\t\\t\\t\\t\\t</span>\\r\\n\\r\\n\\r\\n\\r\\n\\r\\n\\r\\n\\r\\n\\t\\t\\t</div>\\r\\n\\r\\n\\r\\n\\t\\t\\t\\t\\r\\n\\r\\n\\t\\t\\t\\r\\n\\t\\t\\t\\t\\t\\r\\n\\t\\t\\t\\t\\t</div>\\r\\n\\r\\n\\t\\t\\t\\t\\t<div class="form-group">\\r\\n\\t\\t\\t\\t\\t\\t<label for="canti">Da de Baja:</label>\\r\\n\\t\\t\\t\\t\\t\\t<textarea name="qbaja" rows="6" cols="40"></textarea>\\r\\n\\t\\t\\t\\t\\t</div>\\r\\n\\r\\n\\r\\n\\t\\t\\t\\t\\t<div class="form-group">\\r\\n\\t\\t\\t\\t\\t\\t<label for="canti">Descripcion:</label>\\r\\n\\t\\t\\t\\t\\t\\t<textarea name="descripcion" rows="6" cols="40"></textarea>\\r\\n\\t\\t\\t\\t\\t</div>\\r\\n\\t\\t\\t\\t\\t<div class="form-group">\\r\\n\\t\\t\\t\\t\\t\\t<label for="canti">Descripcion:</label>\\r\\n\\t\\t\\t\\t\\t\\t<textarea name="descrip3" rows="6" cols="40"></textarea>\\r\\n\\t\\t\\t\\t\\t</div>\\r\\n\\r\\n\\t\\r\\n\\r\\n\\t\\t\\t\\t\\t\\r\\n\\r\\n\\t</form>\\r\\n</div>\\r\\n\\r\\n\\r\\n  \\r\\n</div>\\r\\n<div>\\r\\n</div>\\r\\n </div>\\r\\n</div>\\r\\n</div>\\r\\n </div>\\r\\n</div>\\r\\n</div>\\r\\n\\r\\n\\r\\n\', escape=False)\nresponse.write(\'\\n        \', escape=False)\nresponse.write(\'\\n      </div>\\n\\n      \', escape=False)\nif right_sidebar_enabled:\n    response.write(\'\\n        <div class="col-md-3">\\n            \', escape=False)\n    response.write(\'\\n            <h3>Right Sidebar</h3>\\n            <p></p>\\n            \', escape=False)\n    response.write(\'\\n        </div>\\n      \', escape=False)\n    pass\nresponse.write(\'\\n\\n    </div>\\n\\n    \', escape=False)\nresponse.write(\' <!-- this is default footer -->      \\n    <footer class="footer">\\n      <div class="container-fluid">\\n        <div class="copyright pull-left">\', escape=False)\nresponse.write(T(\'Copyright\'))\nresponse.write(\' &#169; \', escape=False)\nresponse.write(request.now.year)\nresponse.write(\'  *** Area Inform\\xc3\\xa1tica Dpto. Investigaciones Judiciales D-5</div>\\n          <div id="poweredBy" class="pull-right">\\n            \', escape=False)\nresponse.write(T(\'Powered by\'))\nresponse.write(\'\\n            <a href="http://www.web2py.com/">web2py</a>\\n          </div>\\n      </div>\\n    </footer>\\n    \', escape=False)\nresponse.write(\'\\n    <!-- The javascript =============================== -->\\n    <script src="\', escape=False)\nresponse.write(URL(\'static\',\'js/bootstrap.min.js\'))\nresponse.write(\'"></script>\\n    <script src="\', escape=False)\nresponse.write(URL(\'static\',\'js/web2py-bootstrap3.js\'))\nresponse.write(\'"></script>\\n    \', escape=False)\nresponse.write(\'\\n    \', escape=False)\nif response.google_analytics_id:\n    response.write(\'\\n    <!-- Analytics ==================================== -->\\n    <script src="\', escape=False)\n    response.write(URL(\'static\',\'js/analytics.min.js\'))\n    response.write(\'"></script>\\n    <script type="text/javascript">\\n      analytics.initialize({\\n      \\\'Google Analytics\\\':{trackingId:\\\'\', escape=False)\n    response.write(response.google_analytics_id)\n    response.write("\'}\\n      });\\n    </script>\\n    ", escape=False)\n    pass\nresponse.write(\'\\n    <!-- Share ============================y============ -->\\n    <script src="\', escape=False)\nresponse.write(URL(\'static\',\'js/share.js\',vars=dict(static=URL(\'static\',\'images\'))))\nresponse.write(\'"></script>\\n  </body>\\n</html>\\n\', escape=False)'
p7
sS'snapshot'
p8
(dp9
S'exception'
p10
(dp11
S'__hash__'
p12
S"<method-wrapper '__hash__' of exceptions.IndexError object>"
p13
sS'__setattr__'
p14
S"<method-wrapper '__setattr__' of exceptions.IndexError object>"
p15
sS'__reduce_ex__'
p16
S'<built-in method __reduce_ex__ of exceptions.IndexError object>'
p17
sS'__getslice__'
p18
S"<method-wrapper '__getslice__' of exceptions.IndexError object>"
p19
sS'__getitem__'
p20
S"<method-wrapper '__getitem__' of exceptions.IndexError object>"
p21
sS'__setstate__'
p22
S'<built-in method __setstate__ of exceptions.IndexError object>'
p23
sS'__reduce__'
p24
S'<built-in method __reduce__ of exceptions.IndexError object>'
p25
sS'__str__'
p26
S"<method-wrapper '__str__' of exceptions.IndexError object>"
p27
sS'__format__'
p28
S'<built-in method __format__ of exceptions.IndexError object>'
p29
sS'__getattribute__'
p30
S"<method-wrapper '__getattribute__' of exceptions.IndexError object>"
p31
sS'__class__'
p32
S"<type 'exceptions.IndexError'>"
p33
sS'__unicode__'
p34
S'<built-in method __unicode__ of exceptions.IndexError object>'
p35
sS'__delattr__'
p36
S"<method-wrapper '__delattr__' of exceptions.IndexError object>"
p37
sS'__subclasshook__'
p38
S'<built-in method __subclasshook__ of type object>'
p39
sS'__repr__'
p40
S"<method-wrapper '__repr__' of exceptions.IndexError object>"
p41
sS'args'
p42
S"('list index out of range',)"
p43
sS'__dict__'
p44
S'{}'
p45
sS'__sizeof__'
p46
S'<built-in method __sizeof__ of exceptions.IndexError object>'
p47
sS'__doc__'
p48
S"'Sequence index out of range.'"
p49
sS'__init__'
p50
S"<method-wrapper '__init__' of exceptions.IndexError object>"
p51
sS'__new__'
p52
S'<built-in method __new__ of type object>'
p53
ssS'evalue'
p54
S'list index out of range'
p55
sS'request'
p56
cgluon.html
XML_unpickle
p57
(S'sjV\x00\x00<div><table><tr><td style="font-weight:bold;vertical-align:top;">ajax</td><td style="vertical-align:top;">:</td><td><div>False</div></td></tr><tr><td style="font-weight:bold;vertical-align:top;">application</td><td style="vertical-align:top;">:</td><td><div>patrimonio</div></td></tr><tr><td style="font-weight:bold;vertical-align:top;">args</td><td style="vertical-align:top;">:</td><td><div><table></table></div></td></tr><tr><td style="font-weight:bold;vertical-align:top;">cid</td><td style="vertical-align:top;">:</td><td><div>None</div></td></tr><tr><td style="font-weight:bold;vertical-align:top;">client</td><td style="vertical-align:top;">:</td><td><div>127.0.0.1</div></td></tr><tr><td style="font-weight:bold;vertical-align:top;">controller</td><td style="vertical-align:top;">:</td><td><div>nreg</div></td></tr><tr><td style="font-weight:bold;vertical-align:top;">cookies</td><td style="vertical-align:top;">:</td><td><div><table><tr><td style="font-weight:bold;vertical-align:top;">session_id_admin</td><td style="vertical-align:top;">:</td><td><div>127.0.0.1-95f4c685-9396-41ed-a5e3-8bb4f30d1374<table><tr><td style="font-weight:bold;vertical-align:top;">comment</td><td style="vertical-align:top;">:</td><td><div></div></td></tr><tr><td style="font-weight:bold;vertical-align:top;">domain</td><td style="vertical-align:top;">:</td><td><div></div></td></tr><tr><td style="font-weight:bold;vertical-align:top;">expires</td><td style="vertical-align:top;">:</td><td><div></div></td></tr><tr><td style="font-weight:bold;vertical-align:top;">httponly</td><td style="vertical-align:top;">:</td><td><div></div></td></tr><tr><td style="font-weight:bold;vertical-align:top;">max-age</td><td style="vertical-align:top;">:</td><td><div></div></td></tr><tr><td style="font-weight:bold;vertical-align:top;">path</td><td style="vertical-align:top;">:</td><td><div></div></td></tr><tr><td style="font-weight:bold;vertical-align:top;">secure</td><td style="vertical-align:top;">:</td><td><div></div></td></tr><tr><td style="font-weight:bold;vertical-align:top;">version</td><td style="vertical-align:top;">:</td><td><div></div></td></tr></table></div></td></tr><tr><td style="font-weight:bold;vertical-align:top;">session_id_patrimonio</td><td style="vertical-align:top;">:</td><td><div>127.0.0.1-f1418d34-7c7b-4a86-98ba-d713a9a5b917<table><tr><td style="font-weight:bold;vertical-align:top;">comment</td><td style="vertical-align:top;">:</td><td><div></div></td></tr><tr><td style="font-weight:bold;vertical-align:top;">domain</td><td style="vertical-align:top;">:</td><td><div></div></td></tr><tr><td style="font-weight:bold;vertical-align:top;">expires</td><td style="vertical-align:top;">:</td><td><div></div></td></tr><tr><td style="font-weight:bold;vertical-align:top;">httponly</td><td style="vertical-align:top;">:</td><td><div></div></td></tr><tr><td style="font-weight:bold;vertical-align:top;">max-age</td><td style="vertical-align:top;">:</td><td><div></div></td></tr><tr><td style="font-weight:bold;vertical-align:top;">path</td><td style="vertical-align:top;">:</td><td><div></div></td></tr><tr><td style="font-weight:bold;vertical-align:top;">secure</td><td style="vertical-align:top;">:</td><td><div></div></td></tr><tr><td style="font-weight:bold;vertical-align:top;">version</td><td style="vertical-align:top;">:</td><td><div></div></td></tr></table></div></td></tr></table></div></td></tr><tr><td style="font-weight:bold;vertical-align:top;">env</td><td style="vertical-align:top;">:</td><td><div><table><tr><td style="font-weight:bold;vertical-align:top;">HTTP_ACCEPT</td><td style="vertical-align:top;">:</td><td><div>text/html,application/xhtml+xml,application/xml;q=0.9,*/*;q=0.8</div></td></tr><tr><td style="font-weight:bold;vertical-align:top;">HTTP_ACCEPT_ENCODING</td><td style="vertical-align:top;">:</td><td><div>gzip, deflate</div></td></tr><tr><td style="font-weight:bold;vertical-align:top;">HTTP_ACCEPT_LANGUAGE</td><td style="vertical-align:top;">:</td><td><div>es-ES,es;q=0.8,en-US;q=0.5,en;q=0.3</div></td></tr><tr><td style="font-weight:bold;vertical-align:top;">HTTP_CONNECTION</td><td style="vertical-align:top;">:</td><td><div>keep-alive</div></td></tr><tr><td style="font-weight:bold;vertical-align:top;">HTTP_COOKIE</td><td style="vertical-align:top;">:</td><td><div>session_id_patrimonio=127.0.0.1-f1418d34-7c7b-4a86-98ba-d713a9a5b917; session_id_admin=127.0.0.1-95f4c685-9396-41ed-a5e3-8bb4f30d1374</div></td></tr><tr><td style="font-weight:bold;vertical-align:top;">HTTP_HOST</td><td style="vertical-align:top;">:</td><td><div>127.0.0.1:8000</div></td></tr><tr><td style="font-weight:bold;vertical-align:top;">HTTP_REFERER</td><td style="vertical-align:top;">:</td><td><div>http://127.0.0.1:8000/patrimonio/cargar/cargar_dependencia</div></td></tr><tr><td style="font-weight:bold;vertical-align:top;">HTTP_UPGRADE_INSECURE_REQUESTS</td><td style="vertical-align:top;">:</td><td><div>1</div></td></tr><tr><td style="font-weight:bold;vertical-align:top;">HTTP_USER_AGENT</td><td style="vertical-align:top;">:</td><td><div>Mozilla/5.0 (Windows NT 6.1; rv:59.0) Gecko/20100101 Firefox/59.0</div></td></tr><tr><td style="font-weight:bold;vertical-align:top;">PATH_INFO</td><td style="vertical-align:top;">:</td><td><div>/patrimonio/nreg/nreg</div></td></tr><tr><td style="font-weight:bold;vertical-align:top;">QUERY_STRING</td><td style="vertical-align:top;">:</td><td><div></div></td></tr><tr><td style="font-weight:bold;vertical-align:top;">REMOTE_ADDR</td><td style="vertical-align:top;">:</td><td><div>127.0.0.1</div></td></tr><tr><td style="font-weight:bold;vertical-align:top;">REMOTE_PORT</td><td style="vertical-align:top;">:</td><td><div>65439</div></td></tr><tr><td style="font-weight:bold;vertical-align:top;">REQUEST_METHOD</td><td style="vertical-align:top;">:</td><td><div>GET</div></td></tr><tr><td style="font-weight:bold;vertical-align:top;">SCRIPT_NAME</td><td style="vertical-align:top;">:</td><td><div></div></td></tr><tr><td style="font-weight:bold;vertical-align:top;">SERVER_NAME</td><td style="vertical-align:top;">:</td><td><div>HaTaK3-PC</div></td></tr><tr><td style="font-weight:bold;vertical-align:top;">SERVER_PORT</td><td style="vertical-align:top;">:</td><td><div>8000</div></td></tr><tr><td style="font-weight:bold;vertical-align:top;">SERVER_PROTOCOL</td><td style="vertical-align:top;">:</td><td><div>HTTP/1.1</div></td></tr><tr><td style="font-weight:bold;vertical-align:top;">SERVER_SOFTWARE</td><td style="vertical-align:top;">:</td><td><div>Rocket 1.2.6</div></td></tr><tr><td style="font-weight:bold;vertical-align:top;">app_folders</td><td style="vertical-align:top;">:</td><td><div>set([&#x27;D:\\\\backup servidor\\\\uli\\\\web2py\\\\web2py\\\\applications\\\\patrimonio\\\\&#x27;, &#x27;D:\\\\backup servidor\\\\uli\\\\web2py\\\\web2py\\\\applications\\\\admin\\\\&#x27;])</div></td></tr><tr><td style="font-weight:bold;vertical-align:top;">applications_parent</td><td style="vertical-align:top;">:</td><td><div>D:\\backup servidor\\uli\\web2py\\web2py</div></td></tr><tr><td style="font-weight:bold;vertical-align:top;">cmd_args</td><td style="vertical-align:top;">:</td><td><div><table></table></div></td></tr><tr><td style="font-weight:bold;vertical-align:top;">cmd_options</td><td style="vertical-align:top;">:</td><td><div>&lt;Values at 0x20e0be8: {&#x27;verbose&#x27;: False, &#x27;ip&#x27;: &#x27;127.0.0.1&#x27;, &#x27;debuglevel&#x27;: 30, &#x27;with_scheduler&#x27;: False, &#x27;shutdown_timeout&#x27;: 5, &#x27;taskbar&#x27;: False, &#x27;with_coverage&#x27;: False, &#x27;pid_filename&#x27;: &#x27;httpserver.pid&#x27;, &#x27;maxthreads&#x27;: None, &#x27;softcron&#x27;: False, &#x27;server_name&#x27;: &#x27;HaTaK3-PC&#x27;, &#x27;bpython&#x27;: False, &#x27;nogui&#x27;: False, &#x27;port&#x27;: 8000, &#x27;print_errors&#x27;: False, &#x27;extcron&#x27;: False, &#x27;runcron&#x27;: False, &#x27;run_system_tests&#x27;: False, &#x27;test&#x27;: None, &#x27;folder&#x27;: &#x27;D:\\\\backup servidor\\\\uli\\\\web2py\\\\web2py&#x27;, &#x27;config&#x27;: &#x27;&#x27;, &#x27;minthreads&#x27;: None, &#x27;shell&#x27;: None, &#x27;run&#x27;: &#x27;&#x27;, &#x27;log_filename&#x27;: &#x27;httpserver.log&#x27;, &#x27;profiler_dir&#x27;: None, &#x27;args&#x27;: [&#x27;&#x27;], &#x27;socket_timeout&#x27;: 5, &#x27;ssl_ca_certificate&#x27;: None, &#x27;scheduler&#x27;: None, &#x27;interfaces&#x27;: None, &#x27;ssl_private_key&#x27;: &#x27;&#x27;, &#x27;gae&#x27;: None, &#x27;password&#x27;: &#x27;******&#x27;, &#x27;request_queue_size&#x27;: 5, &#x27;ssl_certificate&#x27;: &#x27;&#x27;, &#x27;cronjob&#x27;: False, &#x27;numthreads&#x27;: None, &#x27;quiet&#x27;: False, &#x27;import_models&#x27;: False, &#x27;timeout&#x27;: 10, &#x27;plain&#x27;: False, &#x27;nobanner&#x27;: False}&gt;</div></td></tr><tr><td style="font-weight:bold;vertical-align:top;">db_sessions</td><td style="vertical-align:top;">:</td><td><div>set([])</div></td></tr><tr><td style="font-weight:bold;vertical-align:top;">debugging</td><td style="vertical-align:top;">:</td><td><div>False</div></td></tr><tr><td style="font-weight:bold;vertical-align:top;">gluon_parent</td><td style="vertical-align:top;">:</td><td><div>D:\\backup servidor\\uli\\web2py\\web2py</div></td></tr><tr><td style="font-weight:bold;vertical-align:top;">http_accept</td><td style="vertical-align:top;">:</td><td><div>text/html,application/xhtml+xml,application/xml;q=0.9,*/*;q=0.8</div></td></tr><tr><td style="font-weight:bold;vertical-align:top;">http_accept_encoding</td><td style="vertical-align:top;">:</td><td><div>gzip, deflate</div></td></tr><tr><td style="font-weight:bold;vertical-align:top;">http_accept_language</td><td style="vertical-align:top;">:</td><td><div>es-ES,es;q=0.8,en-US;q=0.5,en;q=0.3</div></td></tr><tr><td style="font-weight:bold;vertical-align:top;">http_connection</td><td style="vertical-align:top;">:</td><td><div>keep-alive</div></td></tr><tr><td style="font-weight:bold;vertical-align:top;">http_cookie</td><td style="vertical-align:top;">:</td><td><div>session_id_patrimonio=127.0.0.1-f1418d34-7c7b-4a86-98ba-d713a9a5b917; session_id_admin=127.0.0.1-95f4c685-9396-41ed-a5e3-8bb4f30d1374</div></td></tr><tr><td style="font-weight:bold;vertical-align:top;">http_host</td><td style="vertical-align:top;">:</td><td><div>127.0.0.1:8000</div></td></tr><tr><td style="font-weight:bold;vertical-align:top;">http_referer</td><td style="vertical-align:top;">:</td><td><div>http://127.0.0.1:8000/patrimonio/cargar/cargar_dependencia</div></td></tr><tr><td style="font-weight:bold;vertical-align:top;">http_upgrade_insecure_requests</td><td style="vertical-align:top;">:</td><td><div>1</div></td></tr><tr><td style="font-weight:bold;vertical-align:top;">http_user_agent</td><td style="vertical-align:top;">:</td><td><div>Mozilla/5.0 (Windows NT 6.1; rv:59.0) Gecko/20100101 Firefox/59.0</div></td></tr><tr><td style="font-weight:bold;vertical-align:top;">is_jython</td><td style="vertical-align:top;">:</td><td><div>False</div></td></tr><tr><td style="font-weight:bold;vertical-align:top;">is_pypy</td><td style="vertical-align:top;">:</td><td><div>False</div></td></tr><tr><td style="font-weight:bold;vertical-align:top;">is_source</td><td style="vertical-align:top;">:</td><td><div>False</div></td></tr><tr><td style="font-weight:bold;vertical-align:top;">local_hosts</td><td style="vertical-align:top;">:</td><td><div><table><tr><td><div>HaTaK3-PC</div></td></tr><tr><td><div>::ffff:127.0.0.1</div></td></tr><tr><td><div>::1</div></td></tr><tr><td><div>127.0.0.1</div></td></tr><tr><td><div>fe80::6de3:fa60:8d1c:59aa%11</div></td></tr><tr><td><div>10.20.0.138</div></td></tr></table></div></td></tr><tr><td style="font-weight:bold;vertical-align:top;">path_info</td><td style="vertical-align:top;">:</td><td><div>/patrimonio/nreg/nreg</div></td></tr><tr><td style="font-weight:bold;vertical-align:top;">query_string</td><td style="vertical-align:top;">:</td><td><div></div></td></tr><tr><td style="font-weight:bold;vertical-align:top;">remote_addr</td><td style="vertical-align:top;">:</td><td><div>127.0.0.1</div></td></tr><tr><td style="font-weight:bold;vertical-align:top;">remote_port</td><td style="vertical-align:top;">:</td><td><div>65439</div></td></tr><tr><td style="font-weight:bold;vertical-align:top;">request_method</td><td style="vertical-align:top;">:</td><td><div>GET</div></td></tr><tr><td style="font-weight:bold;vertical-align:top;">request_uri</td><td style="vertical-align:top;">:</td><td><div>/patrimonio/nreg/nreg</div></td></tr><tr><td style="font-weight:bold;vertical-align:top;">script_name</td><td style="vertical-align:top;">:</td><td><div></div></td></tr><tr><td style="font-weight:bold;vertical-align:top;">server_name</td><td style="vertical-align:top;">:</td><td><div>HaTaK3-PC</div></td></tr><tr><td style="font-weight:bold;vertical-align:top;">server_port</td><td style="vertical-align:top;">:</td><td><div>8000</div></td></tr><tr><td style="font-weight:bold;vertical-align:top;">server_protocol</td><td style="vertical-align:top;">:</td><td><div>HTTP/1.1</div></td></tr><tr><td style="font-weight:bold;vertical-align:top;">server_software</td><td style="vertical-align:top;">:</td><td><div>Rocket 1.2.6</div></td></tr><tr><td style="font-weight:bold;vertical-align:top;">web2py_path</td><td style="vertical-align:top;">:</td><td><div>D:\\backup servidor\\uli\\web2py\\web2py</div></td></tr><tr><td style="font-weight:bold;vertical-align:top;">web2py_version</td><td style="vertical-align:top;">:</td><td><div>2.14.6-stable+timestamp.2016.05.10.00.21.47</div></td></tr><tr><td style="font-weight:bold;vertical-align:top;">wsgi.errors</td><td style="vertical-align:top;">:</td><td><div>&lt;open file &#x27;&lt;stderr&gt;&#x27;, mode &#x27;w&#x27; at 0x0117D0D0&gt;</div></td></tr><tr><td style="font-weight:bold;vertical-align:top;">wsgi.file_wrapper</td><td style="vertical-align:top;">:</td><td><div>&lt;class wsgiref.util.FileWrapper at 0x023AC030&gt;</div></td></tr><tr><td style="font-weight:bold;vertical-align:top;">wsgi.input</td><td style="vertical-align:top;">:</td><td><div>&lt;socket._fileobject object at 0x06A8B170&gt;</div></td></tr><tr><td style="font-weight:bold;vertical-align:top;">wsgi.multiprocess</td><td style="vertical-align:top;">:</td><td><div>False</div></td></tr><tr><td style="font-weight:bold;vertical-align:top;">wsgi.multithread</td><td style="vertical-align:top;">:</td><td><div>True</div></td></tr><tr><td style="font-weight:bold;vertical-align:top;">wsgi.run_once</td><td style="vertical-align:top;">:</td><td><div>False</div></td></tr><tr><td style="font-weight:bold;vertical-align:top;">wsgi.url_scheme</td><td style="vertical-align:top;">:</td><td><div>http</div></td></tr><tr><td style="font-weight:bold;vertical-align:top;">wsgi.version</td><td style="vertical-align:top;">:</td><td><div><table><tr><td><div>1</div></td></tr><tr><td><div>0</div></td></tr></table></div></td></tr><tr><td style="font-weight:bold;vertical-align:top;">wsgi_errors</td><td style="vertical-align:top;">:</td><td><div>&lt;open file &#x27;&lt;stderr&gt;&#x27;, mode &#x27;w&#x27; at 0x0117D0D0&gt;</div></td></tr><tr><td style="font-weight:bold;vertical-align:top;">wsgi_file_wrapper</td><td style="vertical-align:top;">:</td><td><div>&lt;class wsgiref.util.FileWrapper at 0x023AC030&gt;</div></td></tr><tr><td style="font-weight:bold;vertical-align:top;">wsgi_input</td><td style="vertical-align:top;">:</td><td><div>&lt;socket._fileobject object at 0x06A8B170&gt;</div></td></tr><tr><td style="font-weight:bold;vertical-align:top;">wsgi_multiprocess</td><td style="vertical-align:top;">:</td><td><div>False</div></td></tr><tr><td style="font-weight:bold;vertical-align:top;">wsgi_multithread</td><td style="vertical-align:top;">:</td><td><div>True</div></td></tr><tr><td style="font-weight:bold;vertical-align:top;">wsgi_run_once</td><td style="vertical-align:top;">:</td><td><div>False</div></td></tr><tr><td style="font-weight:bold;vertical-align:top;">wsgi_url_scheme</td><td style="vertical-align:top;">:</td><td><div>http</div></td></tr><tr><td style="font-weight:bold;vertical-align:top;">wsgi_version</td><td style="vertical-align:top;">:</td><td><div><table><tr><td><div>1</div></td></tr><tr><td><div>0</div></td></tr></table></div></td></tr></table></div></td></tr><tr><td style="font-weight:bold;vertical-align:top;">extension</td><td style="vertical-align:top;">:</td><td><div>html</div></td></tr><tr><td style="font-weight:bold;vertical-align:top;">folder</td><td style="vertical-align:top;">:</td><td><div>D:\\backup servidor\\uli\\web2py\\web2py\\applications\\patrimonio\\</div></td></tr><tr><td style="font-weight:bold;vertical-align:top;">function</td><td style="vertical-align:top;">:</td><td><div>nreg</div></td></tr><tr><td style="font-weight:bold;vertical-align:top;">global_settings</td><td style="vertical-align:top;">:</td><td><div><table><tr><td style="font-weight:bold;vertical-align:top;">app_folders</td><td style="vertical-align:top;">:</td><td><div>set([&#x27;D:\\\\backup servidor\\\\uli\\\\web2py\\\\web2py\\\\applications\\\\patrimonio\\\\&#x27;, &#x27;D:\\\\backup servidor\\\\uli\\\\web2py\\\\web2py\\\\applications\\\\admin\\\\&#x27;])</div></td></tr><tr><td style="font-weight:bold;vertical-align:top;">applications_parent</td><td style="vertical-align:top;">:</td><td><div>D:\\backup servidor\\uli\\web2py\\web2py</div></td></tr><tr><td style="font-weight:bold;vertical-align:top;">cmd_args</td><td style="vertical-align:top;">:</td><td><div><table></table></div></td></tr><tr><td style="font-weight:bold;vertical-align:top;">cmd_options</td><td style="vertical-align:top;">:</td><td><div>&lt;Values at 0x20e0be8: {&#x27;verbose&#x27;: False, &#x27;ip&#x27;: &#x27;127.0.0.1&#x27;, &#x27;debuglevel&#x27;: 30, &#x27;with_scheduler&#x27;: False, &#x27;shutdown_timeout&#x27;: 5, &#x27;taskbar&#x27;: False, &#x27;with_coverage&#x27;: False, &#x27;pid_filename&#x27;: &#x27;httpserver.pid&#x27;, &#x27;maxthreads&#x27;: None, &#x27;softcron&#x27;: False, &#x27;server_name&#x27;: &#x27;HaTaK3-PC&#x27;, &#x27;bpython&#x27;: False, &#x27;nogui&#x27;: False, &#x27;port&#x27;: 8000, &#x27;print_errors&#x27;: False, &#x27;extcron&#x27;: False, &#x27;runcron&#x27;: False, &#x27;run_system_tests&#x27;: False, &#x27;test&#x27;: None, &#x27;folder&#x27;: &#x27;D:\\\\backup servidor\\\\uli\\\\web2py\\\\web2py&#x27;, &#x27;config&#x27;: &#x27;&#x27;, &#x27;minthreads&#x27;: None, &#x27;shell&#x27;: None, &#x27;run&#x27;: &#x27;&#x27;, &#x27;log_filename&#x27;: &#x27;httpserver.log&#x27;, &#x27;profiler_dir&#x27;: None, &#x27;args&#x27;: [&#x27;&#x27;], &#x27;socket_timeout&#x27;: 5, &#x27;ssl_ca_certificate&#x27;: None, &#x27;scheduler&#x27;: None, &#x27;interfaces&#x27;: None, &#x27;ssl_private_key&#x27;: &#x27;&#x27;, &#x27;gae&#x27;: None, &#x27;password&#x27;: &#x27;******&#x27;, &#x27;request_queue_size&#x27;: 5, &#x27;ssl_certificate&#x27;: &#x27;&#x27;, &#x27;cronjob&#x27;: False, &#x27;numthreads&#x27;: None, &#x27;quiet&#x27;: False, &#x27;import_models&#x27;: False, &#x27;timeout&#x27;: 10, &#x27;plain&#x27;: False, &#x27;nobanner&#x27;: False}&gt;</div></td></tr><tr><td style="font-weight:bold;vertical-align:top;">db_sessions</td><td style="vertical-align:top;">:</td><td><div>set([])</div></td></tr><tr><td style="font-weight:bold;vertical-align:top;">debugging</td><td style="vertical-align:top;">:</td><td><div>False</div></td></tr><tr><td style="font-weight:bold;vertical-align:top;">gluon_parent</td><td style="vertical-align:top;">:</td><td><div>D:\\backup servidor\\uli\\web2py\\web2py</div></td></tr><tr><td style="font-weight:bold;vertical-align:top;">is_jython</td><td style="vertical-align:top;">:</td><td><div>False</div></td></tr><tr><td style="font-weight:bold;vertical-align:top;">is_pypy</td><td style="vertical-align:top;">:</td><td><div>False</div></td></tr><tr><td style="font-weight:bold;vertical-align:top;">is_source</td><td style="vertical-align:top;">:</td><td><div>False</div></td></tr><tr><td style="font-weight:bold;vertical-align:top;">local_hosts</td><td style="vertical-align:top;">:</td><td><div><table><tr><td><div>HaTaK3-PC</div></td></tr><tr><td><div>::ffff:127.0.0.1</div></td></tr><tr><td><div>::1</div></td></tr><tr><td><div>127.0.0.1</div></td></tr><tr><td><div>fe80::6de3:fa60:8d1c:59aa%11</div></td></tr><tr><td><div>10.20.0.138</div></td></tr></table></div></td></tr><tr><td style="font-weight:bold;vertical-align:top;">web2py_version</td><td style="vertical-align:top;">:</td><td><div>2.14.6-stable+timestamp.2016.05.10.00.21.47</div></td></tr></table></div></td></tr><tr><td style="font-weight:bold;vertical-align:top;">is_https</td><td style="vertical-align:top;">:</td><td><div>False</div></td></tr><tr><td style="font-weight:bold;vertical-align:top;">is_local</td><td style="vertical-align:top;">:</td><td><div>True</div></td></tr><tr><td style="font-weight:bold;vertical-align:top;">is_restful</td><td style="vertical-align:top;">:</td><td><div>False</div></td></tr><tr><td style="font-weight:bold;vertical-align:top;">is_scheduler</td><td style="vertical-align:top;">:</td><td><div>False</div></td></tr><tr><td style="font-weight:bold;vertical-align:top;">is_shell</td><td style="vertical-align:top;">:</td><td><div>False</div></td></tr><tr><td style="font-weight:bold;vertical-align:top;">now</td><td style="vertical-align:top;">:</td><td><div>datetime.datetime(2018, 4, 16, 13, 13, 56, 756000)</div></td></tr><tr><td style="font-weight:bold;vertical-align:top;">raw_args</td><td style="vertical-align:top;">:</td><td><div></div></td></tr><tr><td style="font-weight:bold;vertical-align:top;">raw_extension</td><td style="vertical-align:top;">:</td><td><div>None</div></td></tr><tr><td style="font-weight:bold;vertical-align:top;">url</td><td style="vertical-align:top;">:</td><td><div>/patrimonio/nreg/nreg</div></td></tr><tr><td style="font-weight:bold;vertical-align:top;">utcnow</td><td style="vertical-align:top;">:</td><td><div>datetime.datetime(2018, 4, 16, 16, 13, 56, 756000)</div></td></tr><tr><td style="font-weight:bold;vertical-align:top;">wsgi</td><td style="vertical-align:top;">:</td><td><div>&lt;gluon.main.LazyWSGI object at 0x034A3330&gt;</div></td></tr></table></div>'
tRp58
sS'frames'
p59
(lp60
(dp61
S'file'
p62
S'D:\\backup servidor\\uli\\web2py\\web2py\\gluon\\restricted.py'
p63
sS'dump'
p64
(dp65
S'environment'
p66
S"{'A': <class 'gluon.html.A'>, 'ANY_OF': <class 'gluon.validators.ANY_OF'>, 'ASSIGNJS': <function ASSIGNJS>, 'AppConfig': <function AppConfig>, 'Auth': <class 'gluon.tools.Auth'>, 'B': <class 'gluon.html.B'>, 'BEAUTIFY': <class 'gluon.html.BEAUTIFY'>, 'BODY': <class 'gluon.html.BODY'>, 'BR': <class 'gluon.html.BR'>, 'BUTTON': <class 'gluon.html.BUTTON'>, ...}"
p67
sS'ccode'
p68
S'<code object <module> at 03694C80, file "D:\\back...cations\\patrimonio\\views\\nreg/nreg.html", line 1>'
p69
ssS'lnum'
p70
I227
sS'lines'
p71
(dp72
I224
S'            ccode = code'
p73
sI225
S'        else:'
p74
sI226
S'            ccode = compile2(code, layer)'
p75
sI227
S'        exec ccode in environment'
p76
sI228
S'    except HTTP:'
p77
sI229
S'        raise'
p78
sI230
S'    except RestrictedError:'
p79
sI231
S'        # do not encapsulate (obfuscate) the original RestrictedError'
p80
sI222
S'    try:'
p81
sI223
S'        if isinstance(code, types.CodeType):'
p82
ssS'call'
p83
S'(code=\'response.write(\\\'<!DOCTYPE html>\\\\n<!--[if (gt IE ..."></script>\\\\n  </body>\\\\n</html>\\\\n\\\', escape=False)\', environment={\'A\': <class \'gluon.html.A\'>, \'ANY_OF\': <class \'gluon.validators.ANY_OF\'>, \'ASSIGNJS\': <function ASSIGNJS>, \'AppConfig\': <function AppConfig>, \'Auth\': <class \'gluon.tools.Auth\'>, \'B\': <class \'gluon.html.B\'>, \'BEAUTIFY\': <class \'gluon.html.BEAUTIFY\'>, \'BODY\': <class \'gluon.html.BODY\'>, \'BR\': <class \'gluon.html.BR\'>, \'BUTTON\': <class \'gluon.html.BUTTON\'>, ...}, layer=r\'D:\\backup servidor\\uli\\web2py\\web2py\\applications\\patrimonio\\views\\nreg/nreg.html\')'
p84
sS'func'
p85
S'restricted'
p86
sa(dp87
g62
S'D:\\backup servidor\\uli\\web2py\\web2py\\applications\\patrimonio\\views\\nreg\\nreg.html'
p88
sg64
(dp89
S'div'
p90
S'undefined'
p91
ssg70
I87
sg71
(dp92
I96
S"response.write('\\n      </div>\\n\\n      ', escape=False)"
p93
sI97
S'if right_sidebar_enabled:'
p94
sI78
S'response.write(\'" class="btn btn-info btn-sm pull-right" role="button" ><span class="glyphicon glyphicon-plus"></span>Agregar Dependencias\\r\\n\\t\\t\\t\\t</a></div><br>\\r\\n\\r\\n\\r\\n\\t\\t\\t\\t<div class="form-group">\\r\\n\\t\\t\\t\\t\\t<label for="email">Tipo:</label>\\r\\n\\t\\t\\t\\t\\t\', escape=False)'
p95
sI79
S'response.write(form.custom.widget.tipo)'
p96
sI80
S'response.write(\'\\r\\n\\t\\t\\t\\t</div>\\r\\n\\t\\t\\t\\t<div ><a href="\', escape=False)'
p97
sI81
S"response.write(URL(c='cargar',f='cargar_tipo'))"
p98
sI82
S'response.write(\'" class="btn btn-info btn-sm pull-right" role="button"><span class="glyphicon glyphicon-plus"></span>   Agregar Tipo\\r\\n\\t\\t\\t\\t</a></div><br>\\r\\n\\r\\n\\t\\t\\t\\t<div class="form-group">\\r\\n\\t\\t\\t\\t\\t<label for="email">Marca:</label>\\r\\n\\t\\t\\t\\t\\t\', escape=False)'
p99
sI83
S'response.write(form.custom.widget.marca)'
p100
sI84
S'response.write(\'\\r\\n\\t\\t\\t\\t</div>\\r\\n\\t\\t\\t\\t<div ><a href="\', escape=False)'
p101
sI85
S"response.write(URL(c='cargar',f='cargar_marca'))"
p102
sI86
S'response.write(\'" class="btn btn-info btn-sm pull-right" role="button"><span class="glyphicon glyphicon-plus"></span>Agregar Marca\\r\\n\\t\\t\\t\\t</a></div><br>\\r\\n\\r\\n\\t\\t\\t\\t\\r\\n\\t\\t\\t\\t<div class="form-group">\\r\\n\\t\\t\\t\\t\\t<label for="canti">Modelo:</label>\\r\\n\\t\\t\\t\\t\\t<input type="text" name="modelo" class="form-control" id="modelo">\\r\\n\\t\\t\\t\\t</div>\\r\\n\\t\\t\\t\\t<div class="form-group">\\r\\n\\t\\t\\t\\t\\t<label for="canti">Numero de Serie:</label>\\r\\n\\t\\t\\t\\t\\t<input type="text" name="serie" class="form-control" id="serie">\\r\\n\\t\\t\\t\\t</div>\\r\\n\\t\\t\\t\\t\\r\\n\\t\\t\\t\\t<div class="form-group">\\r\\n\\t\\t\\t\\t\\t<button type="button" class="btn btn-primary" data-toggle="modal" data-target=".bs-example-modal-lg">Generar Numero de Serie</button>\\r\\n\\r\\n\\t\\t\\t\\t\\t\\t<div class="modal fade bs-example-modal-lg" tabindex="-1" role="dialog" aria-labelledby="myLargeModalLabel">\\r\\n  \\t\\t\\t\\t\\t\\t<div class="modal-dialog modal-lg" role="document">\\r\\n    \\t\\t\\t\\t\\t<div class="modal-content">\\r\\n    \\t\\t\\t\\t\\t\\t<!-- encabezado-->\\r\\n      \\t\\t\\t\\t\\t\\t<div class="modal-header"> \\r\\n      \\t\\t\\t\\t\\t\\t\\t<!--<button type="button" class="close" data-dismiss="modal" aria-hidden="false" >&times;</button>-->\\r\\n      \\t\\t\\t\\t\\t\\t\\t<h3 class="modal-title">Su n\\xc3\\xb9mero de serie se genero y es: </h3>\\r\\n      \\t\\t\\t\\t\\t\\t</div>\\r\\n      \\t\\t\\t\\t\\t\\t<!-- contenido de la ventana-->\\r\\n      \\t\\t\\t\\t\\t\\t<div class="moda-body">\\r\\n      \\t\\t\\t\\t\\t\\t\\t<p>\', escape=False)'
p103
sI87
S'response.write(request.args[0])'
p104
sI88
S'response.write(\'</p>\\r\\n      \\t\\t\\t\\t\\t\\t</div>\\r\\n      \\t\\t\\t\\t\\t\\t<!-- fotter de la ventana-->\\r\\n      \\t\\t\\t\\t\\t\\t<div class="modal-footer">\\r\\n      \\t\\t\\t\\t\\t\\t\\t<button type="button" class="btn btn-primary" data-dismiss="modal" href="form" >cerrar</button>\\r\\n      \\t\\t\\t\\t\\t\\t</div>\\r\\n    \\t\\t\\t\\t\\t</div>\\r\\n  \\t\\t\\t\\t\\t\\t</div>\\r\\n\\t\\t\\t\\t\\t\\t</div>\\r\\n\\t\\t\\t\\t\\t</div>\\r\\n\\t\\t\\t\\t\\r\\n\\t\\t\\t\\t<br>\\r\\n\\t\\t\\t\\t<br> \\r\\n\\r\\n\\t\\t\\t\\t\\t\\r\\n\\t\\t\\t\\t\\t\\r\\n\\r\\n\\t\\t\\t\\t\\r\\n\\t\\t\\t\\t\\t  \\r\\n\\r\\n\\t\\t\\t</div>\\r\\n\\t\\t\\t<button type="submit" class="btn btn-info pull-right">Enviar Datos</button>\\r\\n\\r\\n         \\t\\t\\t <input type="hidden" name="_formname" value="prueba"/>\\r\\n\\r\\n\\r\\n\\t\\t\\t\\t\\r\\n\\t\\t</div>\\r\\n\\r\\n\\t\\r\\n\\t\\t<div class="col-md-4">\\r\\n\\t\\t\\t<div class="form-group">\\r\\n\\t\\t\\t\\t\\t\\r\\n\\t\\t\\t\\r\\n\\r\\n\\t\\t\\t\\r\\n\\t\\t\\t\\r\\n\\t\\t\\t\\r\\n\\r\\n\\t\\t\\t\\t\\t\\r\\n\\t\\t\\t\\t\\t<label>Fecha de alta del Equipo:</label>\\r\\n\\t\\t\\t\\t\\t<div class=\\\'input-group date\\\' id=\\\'datetimepicker1\\\'>\\r\\n\\t\\t\\t\\t\\t\\t\', escape=False)'
p105
sI89
S'response.write(form.custom.widget.frecibe)'
p106
sI90
S'response.write(\'\\r\\n\\t\\t\\t\\t\\t\\t<span class="input-group-addon">\\r\\n\\t\\t\\t\\t\\t\\t\\t<span class="glyphicon glyphicon-calendar"></span>\\r\\n\\r\\n\\t\\t\\t\\t\\t\\t</span>\\r\\n\\r\\n\\r\\n\\r\\n\\r\\n\\r\\n\\r\\n\\t\\t\\t</div>\\r\\n\\r\\n\\r\\n\\r\\n\\r\\n\\t\\t\\t\\r\\n\\t\\t\\t\\t\\t\\r\\n\\t\\t\\t\\t\\t</div>\\r\\n\\t\\t\\t\\t\\t\\r\\n\\t\\t\\t\\t\\t<div class="form-group">\\r\\n\\t\\t\\t\\t\\t\\t<label for="canti">Recibe:</label>\\r\\n\\t\\t\\t\\t\\t\\t<textarea name="qrebe" rows="6" cols="40"></textarea>\\r\\n\\t\\t\\t\\t\\t</div>\\r\\n\\r\\n\\r\\n\\t\\t\\t\\t\\t<div class="form-group">\\r\\n\\t\\t\\t\\t\\t\\t<label for="canti">Descripcion:</label>\\r\\n\\t\\t\\t\\t\\t\\t<textarea name="descrip1" rows="6" cols="40"></textarea>\\r\\n\\t\\t\\t\\t\\t</div>\\r\\n\\t\\t\\t\\t\\t<div class="form-group">\\r\\n\\t\\t\\t\\t\\t<label for="email">Estado:</label>\\r\\n\\t\\t\\t\\t\\t\', escape=False)'
p107
sI91
S'response.write(form.custom.widget.estado)'
p108
sI92
S'response.write(\'\\r\\n\\t\\t\\t\\t\\t</div>\\r\\n\\r\\n\\t\\t\\t\\t\\t<div class="form-group">\\r\\n\\t\\t\\t\\t\\t<input type="file" name="tu_imagen" id="archivo" size="40">\\r\\n\\r\\n\\t\\t\\t\\t\\t<input type="submit" name="boton" value="Subir archivo" id="boton">\\r\\n\\r\\n\\r\\n\\r\\n\\r\\n\\t\\t\\t\\t\\t\\r\\n\\t\\t\\t\\t\\t\\r\\n\\t\\t\\t\\t\\t\\r\\n\\t\\t\\t\\t\\t\\r\\n\\t\\t\\t\\t\\t\\r\\n\\r\\n\\t\\t\\t</div>\\r\\n\\r\\n\\t\\t\\r\\n\\t</div>\\r\\n\\r\\n\\r\\n\\t<div class="col-md-4">\\r\\n\\t\\t\\t<div class="form-group">\\r\\n\\t\\t\\t\\t\\t\\r\\n\\t\\t\\t\\r\\n\\r\\n\\t\\t\\t\\r\\n\\t\\t\\t\\r\\n\\t\\t\\t\\r\\n\\r\\n\\t\\t\\t\\t\\t\\r\\n\\t\\t\\t\\t\\t<label>Fecha de Baja del Equipo:</label>\\r\\n\\t\\t\\t\\t\\t<div class=\\\'input-group date\\\' id=\\\'datetimepicker1\\\'>\\r\\n\\t\\t\\t\\t\\t\\t\', escape=False)'
p109
sI93
S'response.write(form.custom.widget.fbaja)'
p110
sI94
S'response.write(\'\\r\\n\\t\\t\\t\\t\\t\\t<span class="input-group-addon">\\r\\n\\t\\t\\t\\t\\t\\t\\t<span class="glyphicon glyphicon-calendar"></span>\\r\\n\\r\\n\\t\\t\\t\\t\\t\\t</span>\\r\\n\\r\\n\\r\\n\\r\\n\\r\\n\\r\\n\\r\\n\\t\\t\\t</div>\\r\\n\\r\\n\\r\\n\\t\\t\\t\\t\\r\\n\\r\\n\\t\\t\\t\\r\\n\\t\\t\\t\\t\\t\\r\\n\\t\\t\\t\\t\\t</div>\\r\\n\\r\\n\\t\\t\\t\\t\\t<div class="form-group">\\r\\n\\t\\t\\t\\t\\t\\t<label for="canti">Da de Baja:</label>\\r\\n\\t\\t\\t\\t\\t\\t<textarea name="qbaja" rows="6" cols="40"></textarea>\\r\\n\\t\\t\\t\\t\\t</div>\\r\\n\\r\\n\\r\\n\\t\\t\\t\\t\\t<div class="form-group">\\r\\n\\t\\t\\t\\t\\t\\t<label for="canti">Descripcion:</label>\\r\\n\\t\\t\\t\\t\\t\\t<textarea name="descripcion" rows="6" cols="40"></textarea>\\r\\n\\t\\t\\t\\t\\t</div>\\r\\n\\t\\t\\t\\t\\t<div class="form-group">\\r\\n\\t\\t\\t\\t\\t\\t<label for="canti">Descripcion:</label>\\r\\n\\t\\t\\t\\t\\t\\t<textarea name="descrip3" rows="6" cols="40"></textarea>\\r\\n\\t\\t\\t\\t\\t</div>\\r\\n\\r\\n\\t\\r\\n\\r\\n\\t\\t\\t\\t\\t\\r\\n\\r\\n\\t</form>\\r\\n</div>\\r\\n\\r\\n\\r\\n  \\r\\n</div>\\r\\n<div>\\r\\n</div>\\r\\n </div>\\r\\n</div>\\r\\n</div>\\r\\n </div>\\r\\n</div>\\r\\n</div>\\r\\n\\r\\n\\r\\n\', escape=False)'
p111
sI95
S"response.write('\\n        ', escape=False)"
p112
ssg83
S'()'
p113
sg85
S'<module>'
p114
sasS'pyver'
p115
S'Python 2.7.9: D:\\backup servidor\\uli\\web2py\\web2py\\web2py.exe (prefix: )'
p116
sS'session'
p117
g57
(S's\n\n\x00\x00<div><table><tr><td style="font-weight:bold;vertical-align:top;">auth</td><td style="vertical-align:top;">:</td><td><div><table><tr><td style="font-weight:bold;vertical-align:top;">expiration</td><td style="vertical-align:top;">:</td><td><div>2592000</div></td></tr><tr><td style="font-weight:bold;vertical-align:top;">hmac_key</td><td style="vertical-align:top;">:</td><td><div>a93aa68c-2a90-4782-b28e-96189b048ca2</div></td></tr><tr><td style="font-weight:bold;vertical-align:top;">last_visit</td><td style="vertical-align:top;">:</td><td><div>datetime.datetime(2018, 4, 12, 12, 4, 51, 723000)</div></td></tr><tr><td style="font-weight:bold;vertical-align:top;">remember_me</td><td style="vertical-align:top;">:</td><td><div>True</div></td></tr><tr><td style="font-weight:bold;vertical-align:top;">user</td><td style="vertical-align:top;">:</td><td><div><table><tr><td style="font-weight:bold;vertical-align:top;">email</td><td style="vertical-align:top;">:</td><td><div>juan@ulivar.com</div></td></tr><tr><td style="font-weight:bold;vertical-align:top;">first_name</td><td style="vertical-align:top;">:</td><td><div>juan</div></td></tr><tr><td style="font-weight:bold;vertical-align:top;">id</td><td style="vertical-align:top;">:</td><td><div>1L</div></td></tr><tr><td style="font-weight:bold;vertical-align:top;">last_name</td><td style="vertical-align:top;">:</td><td><div>ulivar</div></td></tr><tr><td style="font-weight:bold;vertical-align:top;">registration_id</td><td style="vertical-align:top;">:</td><td><div></div></td></tr><tr><td style="font-weight:bold;vertical-align:top;">registration_key</td><td style="vertical-align:top;">:</td><td><div></div></td></tr><tr><td style="font-weight:bold;vertical-align:top;">reset_password_key</td><td style="vertical-align:top;">:</td><td><div></div></td></tr></table></div></td></tr><tr><td style="font-weight:bold;vertical-align:top;">user_groups</td><td style="vertical-align:top;">:</td><td><div><table><tr><td style="font-weight:bold;vertical-align:top;">2</td><td style="vertical-align:top;">:</td><td><div>Administrador</div></td></tr></table></div></td></tr></table></div></td></tr><tr><td style="font-weight:bold;vertical-align:top;">flash</td><td style="vertical-align:top;">:</td><td><div>None</div></td></tr><tr><td style="font-weight:bold;vertical-align:top;">last_orderby</td><td style="vertical-align:top;">:</td><td><div>None</div></td></tr><tr><td style="font-weight:bold;vertical-align:top;">last_query</td><td style="vertical-align:top;">:</td><td><div>db.carga.id&gt;0</div></td></tr></table></div>'
tRp118
sS'etype'
p119
S"<type 'exceptions.IndexError'>"
p120
sS'date'
p121
S'Mon Apr 16 13:13:56 2018'
p122
sS'response'
p123
g57
(S's\x15A\x00\x00<div><table><tr><td style="font-weight:bold;vertical-align:top;">body</td><td style="vertical-align:top;">:</td><td><div>&lt;cStringIO.StringO object at 0x037F79A0&gt;</div></td></tr><tr><td style="font-weight:bold;vertical-align:top;">cookies</td><td style="vertical-align:top;">:</td><td><div><table><tr><td style="font-weight:bold;vertical-align:top;">session_id_patrimonio</td><td style="vertical-align:top;">:</td><td><div>127.0.0.1-f1418d34-7c7b-4a86-98ba-d713a9a5b917<table><tr><td style="font-weight:bold;vertical-align:top;">comment</td><td style="vertical-align:top;">:</td><td><div></div></td></tr><tr><td style="font-weight:bold;vertical-align:top;">domain</td><td style="vertical-align:top;">:</td><td><div></div></td></tr><tr><td style="font-weight:bold;vertical-align:top;">expires</td><td style="vertical-align:top;">:</td><td><div></div></td></tr><tr><td style="font-weight:bold;vertical-align:top;">httponly</td><td style="vertical-align:top;">:</td><td><div></div></td></tr><tr><td style="font-weight:bold;vertical-align:top;">max-age</td><td style="vertical-align:top;">:</td><td><div></div></td></tr><tr><td style="font-weight:bold;vertical-align:top;">path</td><td style="vertical-align:top;">:</td><td><div>/</div></td></tr><tr><td style="font-weight:bold;vertical-align:top;">secure</td><td style="vertical-align:top;">:</td><td><div></div></td></tr><tr><td style="font-weight:bold;vertical-align:top;">version</td><td style="vertical-align:top;">:</td><td><div></div></td></tr></table></div></td></tr></table></div></td></tr><tr><td style="font-weight:bold;vertical-align:top;">delimiters</td><td style="vertical-align:top;">:</td><td><div><table><tr><td><div>{{</div></td></tr><tr><td><div>}}</div></td></tr></table></div></td></tr><tr><td style="font-weight:bold;vertical-align:top;">files</td><td style="vertical-align:top;">:</td><td><div><table><tr><td><div>/patrimonio/static/js/jquery.js</div></td></tr><tr><td><div>/patrimonio/static/css/calendar.css</div></td></tr><tr><td><div>/patrimonio/static/js/calendar.js</div></td></tr><tr><td><div>/patrimonio/static/js/web2py.js</div></td></tr></table></div></td></tr><tr><td style="font-weight:bold;vertical-align:top;">flash</td><td style="vertical-align:top;">:</td><td><div>Debe completar el formulario</div></td></tr><tr><td style="font-weight:bold;vertical-align:top;">form_label_separator</td><td style="vertical-align:top;">:</td><td><div></div></td></tr><tr><td style="font-weight:bold;vertical-align:top;">formstyle</td><td style="vertical-align:top;">:</td><td><div>bootstrap3_inline</div></td></tr><tr><td style="font-weight:bold;vertical-align:top;">generic_patterns</td><td style="vertical-align:top;">:</td><td><div><table><tr><td><div>*</div></td></tr></table></div></td></tr><tr><td style="font-weight:bold;vertical-align:top;">google_analytics_id</td><td style="vertical-align:top;">:</td><td><div>None</div></td></tr><tr><td style="font-weight:bold;vertical-align:top;">headers</td><td style="vertical-align:top;">:</td><td><div><table><tr><td style="font-weight:bold;vertical-align:top;">X-Powered-By</td><td style="vertical-align:top;">:</td><td><div>web2py</div></td></tr></table></div></td></tr><tr><td style="font-weight:bold;vertical-align:top;">logo</td><td style="vertical-align:top;">:</td><td><div><a class="navbar-brand" href="http://www.web2py.com/" id="web2py-logo"><b>web<span>2</span>py</b>&trade;&nbsp;</a></div></td></tr><tr><td style="font-weight:bold;vertical-align:top;">menu</td><td style="vertical-align:top;">:</td><td><div><table><tr><td><div><table><tr><td><div>Inicio</div></td></tr><tr><td><div>False</div></td></tr><tr><td><div>/patrimonio/default/index</div></td></tr><tr><td><div><table></table></div></td></tr></table></div></td></tr><tr><td><div><table><tr><td><div>Mis Sitios</div></td></tr><tr><td><div>False</div></td></tr><tr><td><div>/admin/default/site</div></td></tr></table></div></td></tr><tr><td><div><table><tr><td><div>Esta Aplicaci\xc3\xb3n</div></td></tr><tr><td><div>False</div></td></tr><tr><td><div>#</div></td></tr><tr><td><div><table><tr><td><div><table><tr><td><div>Design</div></td></tr><tr><td><div>False</div></td></tr><tr><td><div>/admin/default/design/patrimonio</div></td></tr></table></div></td></tr><tr><td><div><li class="divider"></li></div></td></tr><tr><td><div><table><tr><td><div>Controlador</div></td></tr><tr><td><div>False</div></td></tr><tr><td><div>/admin/default/edit/patrimonio/controllers/nreg.py</div></td></tr></table></div></td></tr><tr><td><div><table><tr><td><div>Vista</div></td></tr><tr><td><div>False</div></td></tr><tr><td><div>/admin/default/edit/patrimonio/views/nreg/nreg.html</div></td></tr></table></div></td></tr><tr><td><div><table><tr><td><div>Modelo BDD</div></td></tr><tr><td><div>False</div></td></tr><tr><td><div>/admin/default/edit/patrimonio/models/db.py</div></td></tr></table></div></td></tr><tr><td><div><table><tr><td><div>Modelo "menu"</div></td></tr><tr><td><div>False</div></td></tr><tr><td><div>/admin/default/edit/patrimonio/models/menu.py</div></td></tr></table></div></td></tr><tr><td><div><table><tr><td><div>Config.ini</div></td></tr><tr><td><div>False</div></td></tr><tr><td><div>/admin/default/edit/patrimonio/private/appconfig.ini</div></td></tr></table></div></td></tr><tr><td><div><table><tr><td><div>Dise\xc3\xb1o de p\xc3\xa1gina</div></td></tr><tr><td><div>False</div></td></tr><tr><td><div>/admin/default/edit/patrimonio/views/layout.html</div></td></tr></table></div></td></tr><tr><td><div><table><tr><td><div>Hoja de estilo</div></td></tr><tr><td><div>False</div></td></tr><tr><td><div>/admin/default/edit/patrimonio/static/css/web2py-bootstrap3.css</div></td></tr></table></div></td></tr><tr><td><div><table><tr><td><div>Base de datos</div></td></tr><tr><td><div>False</div></td></tr><tr><td><div>/patrimonio/appadmin/index</div></td></tr></table></div></td></tr><tr><td><div><table><tr><td><div>Errores</div></td></tr><tr><td><div>False</div></td></tr><tr><td><div>/admin/default/errors/patrimonio</div></td></tr></table></div></td></tr><tr><td><div><table><tr><td><div>Acerca de</div></td></tr><tr><td><div>False</div></td></tr><tr><td><div>/admin/default/about/patrimonio</div></td></tr></table></div></td></tr></table></div></td></tr></table></div></td></tr><tr><td><div><table><tr><td><div>web2py.com</div></td></tr><tr><td><div>False</div></td></tr><tr><td><div>#</div></td></tr><tr><td><div><table><tr><td><div><table><tr><td><div>Descargas</div></td></tr><tr><td><div>False</div></td></tr><tr><td><div>http://www.web2py.com/examples/default/download</div></td></tr></table></div></td></tr><tr><td><div><table><tr><td><div>Soporte</div></td></tr><tr><td><div>False</div></td></tr><tr><td><div>http://www.web2py.com/examples/default/support</div></td></tr></table></div></td></tr><tr><td><div><table><tr><td><div>Demostraci\xc3\xb3n</div></td></tr><tr><td><div>False</div></td></tr><tr><td><div>http://web2py.com/demo_admin</div></td></tr></table></div></td></tr><tr><td><div><table><tr><td><div>Ejemplos R\xc3\xa1pidos</div></td></tr><tr><td><div>False</div></td></tr><tr><td><div>http://web2py.com/examples/default/examples</div></td></tr></table></div></td></tr><tr><td><div><table><tr><td><div>FAQ</div></td></tr><tr><td><div>False</div></td></tr><tr><td><div>http://web2py.com/AlterEgo</div></td></tr></table></div></td></tr><tr><td><div><table><tr><td><div>V\xc3\xaddeos</div></td></tr><tr><td><div>False</div></td></tr><tr><td><div>http://www.web2py.com/examples/default/videos/</div></td></tr></table></div></td></tr><tr><td><div><table><tr><td><div>Aplicaciones Libres</div></td></tr><tr><td><div>False</div></td></tr><tr><td><div>http://web2py.com/appliances</div></td></tr></table></div></td></tr><tr><td><div><table><tr><td><div>Plugins</div></td></tr><tr><td><div>False</div></td></tr><tr><td><div>http://web2py.com/plugins</div></td></tr></table></div></td></tr><tr><td><div><table><tr><td><div>Recetas</div></td></tr><tr><td><div>False</div></td></tr><tr><td><div>http://web2pyslices.com/</div></td></tr></table></div></td></tr></table></div></td></tr></table></div></td></tr><tr><td><div><table><tr><td><div>Documentaci\xc3\xb3n</div></td></tr><tr><td><div>False</div></td></tr><tr><td><div>#</div></td></tr><tr><td><div><table><tr><td><div><table><tr><td><div>Online book</div></td></tr><tr><td><div>False</div></td></tr><tr><td><div>http://www.web2py.com/book</div></td></tr></table></div></td></tr><tr><td><div><li class="divider"></li></div></td></tr><tr><td><div><table><tr><td><div>Prefacio</div></td></tr><tr><td><div>False</div></td></tr><tr><td><div>http://www.web2py.com/book/default/chapter/00</div></td></tr></table></div></td></tr><tr><td><div><table><tr><td><div>Introducci\xc3\xb3n</div></td></tr><tr><td><div>False</div></td></tr><tr><td><div>http://www.web2py.com/book/default/chapter/01</div></td></tr></table></div></td></tr><tr><td><div><table><tr><td><div>Python</div></td></tr><tr><td><div>False</div></td></tr><tr><td><div>http://www.web2py.com/book/default/chapter/02</div></td></tr></table></div></td></tr><tr><td><div><table><tr><td><div>Resumen</div></td></tr><tr><td><div>False</div></td></tr><tr><td><div>http://www.web2py.com/book/default/chapter/03</div></td></tr></table></div></td></tr><tr><td><div><table><tr><td><div>El N\xc3\xbacleo</div></td></tr><tr><td><div>False</div></td></tr><tr><td><div>http://www.web2py.com/book/default/chapter/04</div></td></tr></table></div></td></tr><tr><td><div><table><tr><td><div>Las Vistas</div></td></tr><tr><td><div>False</div></td></tr><tr><td><div>http://www.web2py.com/book/default/chapter/05</div></td></tr></table></div></td></tr><tr><td><div><table><tr><td><div>Base de datos</div></td></tr><tr><td><div>False</div></td></tr><tr><td><div>http://www.web2py.com/book/default/chapter/06</div></td></tr></table></div></td></tr><tr><td><div><table><tr><td><div>Formularios y validadores</div></td></tr><tr><td><div>False</div></td></tr><tr><td><div>http://www.web2py.com/book/default/chapter/07</div></td></tr></table></div></td></tr><tr><td><div><table><tr><td><div>Correo electr\xc3\xb3nico y SMS</div></td></tr><tr><td><div>False</div></td></tr><tr><td><div>http://www.web2py.com/book/default/chapter/08</div></td></tr></table></div></td></tr><tr><td><div><table><tr><td><div>Control de Acceso</div></td></tr><tr><td><div>False</div></td></tr><tr><td><div>http://www.web2py.com/book/default/chapter/09</div></td></tr></table></div></td></tr><tr><td><div><table><tr><td><div>Servicios</div></td></tr><tr><td><div>False</div></td></tr><tr><td><div>http://www.web2py.com/book/default/chapter/10</div></td></tr></table></div></td></tr><tr><td><div><table><tr><td><div>Recetas AJAX</div></td></tr><tr><td><div>False</div></td></tr><tr><td><div>http://www.web2py.com/book/default/chapter/11</div></td></tr></table></div></td></tr><tr><td><div><table><tr><td><div>Componentes y Plugins</div></td></tr><tr><td><div>False</div></td></tr><tr><td><div>http://www.web2py.com/book/default/chapter/12</div></td></tr></table></div></td></tr><tr><td><div><table><tr><td><div>Recetas de despliegue</div></td></tr><tr><td><div>False</div></td></tr><tr><td><div>http://www.web2py.com/book/default/chapter/13</div></td></tr></table></div></td></tr><tr><td><div><table><tr><td><div>Otras Recetas</div></td></tr><tr><td><div>False</div></td></tr><tr><td><div>http://www.web2py.com/book/default/chapter/14</div></td></tr></table></div></td></tr><tr><td><div><table><tr><td><div>Helping web2py</div></td></tr><tr><td><div>False</div></td></tr><tr><td><div>http://www.web2py.com/book/default/chapter/15</div></td></tr></table></div></td></tr><tr><td><div><table><tr><td><div>Buy web2py\'s book</div></td></tr><tr><td><div>False</div></td></tr><tr><td><div>http://stores.lulu.com/web2py</div></td></tr></table></div></td></tr></table></div></td></tr></table></div></td></tr><tr><td><div><table><tr><td><div>Comunidad</div></td></tr><tr><td><div>False</div></td></tr><tr><td><div>None</div></td></tr><tr><td><div><table><tr><td><div><table><tr><td><div>Grupos</div></td></tr><tr><td><div>False</div></td></tr><tr><td><div>http://www.web2py.com/examples/default/usergroups</div></td></tr></table></div></td></tr><tr><td><div><table><tr><td><div>Twitter</div></td></tr><tr><td><div>False</div></td></tr><tr><td><div>http://twitter.com/web2py</div></td></tr></table></div></td></tr><tr><td><div><table><tr><td><div>Chat en vivo</div></td></tr><tr><td><div>False</div></td></tr><tr><td><div>http://webchat.freenode.net/?channels=web2py</div></td></tr></table></div></td></tr></table></div></td></tr></table></div></td></tr></table></div></td></tr><tr><td style="font-weight:bold;vertical-align:top;">meta</td><td style="vertical-align:top;">:</td><td><div><table><tr><td style="font-weight:bold;vertical-align:top;">author</td><td style="vertical-align:top;">:</td><td><div>Your Name &lt;you@example.com&gt;</div></td></tr><tr><td style="font-weight:bold;vertical-align:top;">description</td><td style="vertical-align:top;">:</td><td><div>a cool new app</div></td></tr><tr><td style="font-weight:bold;vertical-align:top;">generator</td><td style="vertical-align:top;">:</td><td><div>Web2py Web Framework</div></td></tr><tr><td style="font-weight:bold;vertical-align:top;">keywords</td><td style="vertical-align:top;">:</td><td><div><table><tr><td><div>web2py</div></td></tr><tr><td><div>python</div></td></tr><tr><td><div>framework</div></td></tr></table></div></td></tr></table></div></td></tr><tr><td style="font-weight:bold;vertical-align:top;">models_to_run</td><td style="vertical-align:top;">:</td><td><div><table><tr><td><div>^\\w+\\.py$</div></td></tr><tr><td><div>^nreg/\\w+\\.py$</div></td></tr><tr><td><div>^nreg/nreg/\\w+\\.py$</div></td></tr></table></div></td></tr><tr><td style="font-weight:bold;vertical-align:top;">postprocessing</td><td style="vertical-align:top;">:</td><td><div><table></table></div></td></tr><tr><td style="font-weight:bold;vertical-align:top;">session_client</td><td style="vertical-align:top;">:</td><td><div>127.0.0.1</div></td></tr><tr><td style="font-weight:bold;vertical-align:top;">session_cookie_compression_level</td><td style="vertical-align:top;">:</td><td><div>None</div></td></tr><tr><td style="font-weight:bold;vertical-align:top;">session_cookie_expires</td><td style="vertical-align:top;">:</td><td><div>2592000</div></td></tr><tr><td style="font-weight:bold;vertical-align:top;">session_data_name</td><td style="vertical-align:top;">:</td><td><div>session_data_patrimonio</div></td></tr><tr><td style="font-weight:bold;vertical-align:top;">session_file</td><td style="vertical-align:top;">:</td><td><div>&lt;open file &#x27;D:\\\\backup servidor\\\\uli\\\\web2py\\\\web2py\\\\applications\\\\patrimonio\\\\sessions\\\\0c8\\\\1e1\\\\127.0.0.1-f1418d34-7c7b-4a86-98ba-d713a9a5b917&#x27;, mode &#x27;rb+&#x27; at 0x06C614F0&gt;</div></td></tr><tr><td style="font-weight:bold;vertical-align:top;">session_filename</td><td style="vertical-align:top;">:</td><td><div>D:\\backup servidor\\uli\\web2py\\web2py\\applications\\patrimonio\\sessions\\127.0.0.1-f1418d34-7c7b-4a86-98ba-d713a9a5b917</div></td></tr><tr><td style="font-weight:bold;vertical-align:top;">session_hash</td><td style="vertical-align:top;">:</td><td><div>04ed1bcd4469357f7288a5c78536192c</div></td></tr><tr><td style="font-weight:bold;vertical-align:top;">session_id</td><td style="vertical-align:top;">:</td><td><div>127.0.0.1-f1418d34-7c7b-4a86-98ba-d713a9a5b917</div></td></tr><tr><td style="font-weight:bold;vertical-align:top;">session_id_name</td><td style="vertical-align:top;">:</td><td><div>session_id_patrimonio</div></td></tr><tr><td style="font-weight:bold;vertical-align:top;">session_locked</td><td style="vertical-align:top;">:</td><td><div>True</div></td></tr><tr><td style="font-weight:bold;vertical-align:top;">session_masterapp</td><td style="vertical-align:top;">:</td><td><div>patrimonio</div></td></tr><tr><td style="font-weight:bold;vertical-align:top;">session_new</td><td style="vertical-align:top;">:</td><td><div>False</div></td></tr><tr><td style="font-weight:bold;vertical-align:top;">session_storage_type</td><td style="vertical-align:top;">:</td><td><div>file</div></td></tr><tr><td style="font-weight:bold;vertical-align:top;">status</td><td style="vertical-align:top;">:</td><td><div>200</div></td></tr><tr><td style="font-weight:bold;vertical-align:top;">subtitle</td><td style="vertical-align:top;">:</td><td><div></div></td></tr><tr><td style="font-weight:bold;vertical-align:top;">title</td><td style="vertical-align:top;">:</td><td><div>Patrimonio</div></td></tr><tr><td style="font-weight:bold;vertical-align:top;">view</td><td style="vertical-align:top;">:</td><td><div>nreg/nreg.html</div></td></tr></table></div>'
tRp124
sS'locals'
p125
(dp126
S'Service'
p127
S"<class 'gluon.tools.Service'>"
p128
sS'OBJECT'
p129
S"<class 'gluon.html.OBJECT'>"
p130
sS'SQLDB'
p131
S"<class 'pydal.base.DAL'>"
p132
sg117
S"<Storage {'_formkey[cargar/create]': ['6d0956ba-...gin]': ['2717b5f1-9171-4ebf-828e-a1329663ab64']}>"
p133
sS'LINK'
p134
S"<class 'gluon.html.LINK'>"
p135
sS'BR'
p136
S"<class 'gluon.html.BR'>"
p137
sS'local_import'
p138
S'<function <lambda>>'
p139
sS'OPTGROUP'
p140
S"<class 'gluon.html.OPTGROUP'>"
p141
sS'__package__'
p142
S'None'
p143
sS'PRE'
p144
S"<class 'gluon.html.PRE'>"
p145
sS'IS_INT_IN_RANGE'
p146
S"<class 'gluon.validators.IS_INT_IN_RANGE'>"
p147
sS'left_sidebar_enabled'
p148
S'False'
p149
sS'IS_LOWER'
p150
S"<class 'gluon.validators.IS_LOWER'>"
p151
sS'IS_STRONG'
p152
S"<class 'gluon.validators.IS_STRONG'>"
p153
sS'cache'
p154
S'<gluon.cache.Cache object>'
p155
sS'IS_IN_DB'
p156
S"<class 'gluon.validators.IS_IN_DB'>"
p157
sS'TAG'
p158
S'<gluon.html.__TAG__ object>'
p159
sS'SQLField'
p160
S"<class 'pydal.objects.Field'>"
p161
sS'mail'
p162
S'<gluon.tools.Mail object>'
p163
sS'BODY'
p164
S"<class 'gluon.html.BODY'>"
p165
sS'IS_DATE_IN_RANGE'
p166
S"<class 'gluon.validators.IS_DATE_IN_RANGE'>"
p167
sS'IFRAME'
p168
S"<class 'gluon.html.IFRAME'>"
p169
sS'URL'
p170
S'<function URL>'
p171
sS'__file__'
p172
S"r'D:\\backup servidor\\uli\\web2py\\web2py\\applications\\patrimonio\\views\\nreg/nreg.html'"
p173
sS'db'
p174
S'<DAL uri="sqlite://storage.sqlite">'
p175
sS'auth'
p176
S'<gluon.tools.Auth object>'
p177
sS'P'
S"<class 'gluon.html.P'>"
p178
sS'TFOOT'
p179
S"<class 'gluon.html.TFOOT'>"
p180
sS'XHTML'
p181
S"<class 'gluon.html.XHTML'>"
p182
sS'datetime'
p183
S"<module 'datetime' (built-in)>"
p184
sS'ON'
p185
S'True'
p186
sS'OL'
p187
S"<class 'gluon.html.OL'>"
p188
sS'TEXTAREA'
p189
S"<class 'gluon.html.TEXTAREA'>"
p190
sS'MENU'
p191
S"<class 'gluon.html.MENU'>"
p192
sS'IS_IMAGE'
p193
S"<class 'gluon.validators.IS_IMAGE'>"
p194
sS'EM'
p195
S"<class 'gluon.html.EM'>"
p196
sS'CODE'
p197
S"<class 'gluon.html.CODE'>"
p198
sS'HTTP'
p199
S"<class 'gluon.http.HTTP'>"
p200
sS'HR'
p201
S"<class 'gluon.html.HR'>"
p202
sS'IS_DATETIME'
p203
S"<class 'gluon.validators.IS_DATETIME'>"
p204
sS'STYLE'
p205
S"<class 'gluon.html.STYLE'>"
p206
sS'LABEL'
p207
S"<class 'gluon.html.LABEL'>"
p208
sS'CLEANUP'
p209
S"<class 'gluon.validators.CLEANUP'>"
p210
sS'plugins'
p211
S'<gluon.tools.PluginManager object>'
p212
sS'SELECT'
p213
S"<class 'gluon.html.SELECT'>"
p214
sS'CENTER'
p215
S"<class 'gluon.html.CENTER'>"
p216
sS'Auth'
p217
S"<class 'gluon.tools.Auth'>"
p218
sS'DEVELOPMENT_MENU'
p219
g186
sS'__builtins__'
p220
S"{'ArithmeticError': <type 'exceptions.ArithmeticError'>, 'AssertionError': <type 'exceptions.AssertionError'>, 'AttributeError': <type 'exceptions.AttributeError'>, 'BaseException': <type 'exceptions.BaseException'>, 'BufferError': <type 'exceptions.BufferError'>, 'BytesWarning': <type 'exceptions.BytesWarning'>, 'DeprecationWarning': <type 'exceptions.DeprecationWarning'>, 'EOFError': <type 'exceptions.EOFError'>, 'Ellipsis': Ellipsis, 'EnvironmentError': <type 'exceptions.EnvironmentError'>, ...}"
p221
sS'HTML'
p222
S"<class 'gluon.html.HTML'>"
p223
sS'SQLFORM'
p224
S"<class 'gluon.sqlhtml.SQLFORM'>"
p225
sS'LOAD'
p226
S'<function LOAD>'
p227
sS'redirect'
p228
S'<function redirect>'
p229
sS'FIELDSET'
p230
S"<class 'gluon.html.FIELDSET'>"
p231
sS'IS_EQUAL_TO'
p232
S"<class 'gluon.validators.IS_EQUAL_TO'>"
p233
sS'embed64'
p234
S'<function embed64>'
p235
sS'IS_LIST_OF'
p236
S"<class 'gluon.validators.IS_LIST_OF'>"
p237
sS'INPUT'
p238
S"<class 'gluon.html.INPUT'>"
p239
sS'EMBED'
p240
S"<class 'gluon.html.EMBED'>"
p241
sS'_'
S'<function _>'
p242
sS'myconf'
p243
S"{'forms': {'formstyle': 'bootstrap3_inline', 'se...': {'names': 'localhost:*, 127.0.0.1:*, *:*, *'}}"
p244
sS'H2'
p245
S"<class 'gluon.html.H2'>"
p246
sS'H3'
p247
S"<class 'gluon.html.H3'>"
p248
sS'AppConfig'
p249
S'<function AppConfig>'
p250
sS'H1'
p251
S"<class 'gluon.html.H1'>"
p252
sS'H6'
p253
S"<class 'gluon.html.H6'>"
p254
sS'H4'
p255
S"<class 'gluon.html.H4'>"
p256
sS'H5'
p257
S"<class 'gluon.html.H5'>"
p258
sS'UL'
p259
S"<class 'gluon.html.UL'>"
p260
sS'IS_UPPER'
p261
S"<class 'gluon.validators.IS_UPPER'>"
p262
sS'xmlescape'
p263
S'<function xmlescape>'
p264
sS'IS_TIME'
p265
S"<class 'gluon.validators.IS_TIME'>"
p266
sS'OPTION'
p267
S"<class 'gluon.html.OPTION'>"
p268
sS'TITLE'
p269
S"<class 'gluon.html.TITLE'>"
p270
sS'CRYPT'
p271
S"<class 'gluon.validators.CRYPT'>"
p272
sS'IS_EMPTY_OR'
p273
S"<class 'gluon.validators.IS_EMPTY_OR'>"
p274
sS'MARKMIN'
p275
S"<class 'gluon.html.MARKMIN'>"
p276
sS'__name__'
p277
S"'__restricted__'"
p278
sS'STRONG'
p279
S"<class 'gluon.html.STRONG'>"
p280
sS'COL'
p281
S"<class 'gluon.html.COL'>"
p282
sS'mc1'
p283
S"'col-md-9'"
p284
sS'mc0'
p285
S"'col-md-12'"
p286
sS'service'
p287
S'<gluon.tools.Service object>'
p288
sS'SCRIPT'
p289
S"<class 'gluon.html.SCRIPT'>"
p290
sS'TABLE'
p291
S"<class 'gluon.html.TABLE'>"
p292
sS'IS_IPV4'
p293
S"<class 'gluon.validators.IS_IPV4'>"
p294
sS'IS_LENGTH'
p295
S"<class 'gluon.validators.IS_LENGTH'>"
p296
sS'IS_IPV6'
p297
S"<class 'gluon.validators.IS_IPV6'>"
p298
sS'XML'
p299
S"<class 'gluon.html.XML'>"
p300
sS'B'
S"<class 'gluon.html.B'>"
p301
sS'IMG'
p302
S"<class 'gluon.html.IMG'>"
p303
sS'SQLTABLE'
p304
S"<class 'gluon.sqlhtml.SQLTABLE'>"
p305
sS'IS_MATCH'
p306
S"<class 'gluon.validators.IS_MATCH'>"
p307
sS'IS_ALPHANUMERIC'
p308
S"<class 'gluon.validators.IS_ALPHANUMERIC'>"
p309
sS'SPAN'
p310
S"<class 'gluon.html.SPAN'>"
p311
sS'IS_JSON'
p312
S"<class 'gluon.validators.IS_JSON'>"
p313
sS'IS_IPADDRESS'
p314
S"<class 'gluon.validators.IS_IPADDRESS'>"
p315
sS'IS_SLUG'
p316
S"<class 'gluon.validators.IS_SLUG'>"
p317
sS'BEAUTIFY'
p318
S"<class 'gluon.html.BEAUTIFY'>"
p319
sS'META'
p320
S"<class 'gluon.html.META'>"
p321
sS'BUTTON'
p322
S"<class 'gluon.html.BUTTON'>"
p323
sS'IS_DATE'
p324
S"<class 'gluon.validators.IS_DATE'>"
p325
sS'IS_EMAIL'
p326
S"<class 'gluon.validators.IS_EMAIL'>"
p327
sS'middle_column'
p328
S"'col-md-12'"
p329
sS'IS_NOT_EMPTY'
p330
S"<class 'gluon.validators.IS_NOT_EMPTY'>"
p331
sS'IS_FLOAT_IN_RANGE'
p332
S"<class 'gluon.validators.IS_FLOAT_IN_RANGE'>"
p333
sS'TBODY'
p334
S"<class 'gluon.html.TBODY'>"
p335
sS'CAT'
p336
S"<class 'gluon.html.CAT'>"
p337
sS'Field'
p338
S"<class 'pydal.objects.Field'>"
p339
sS'mc2'
p340
S"'col-md-6'"
p341
sS'IS_LIST_OF_EMAILS'
p342
S"<class 'gluon.validators.IS_LIST_OF_EMAILS'>"
p343
sS'DIV'
p344
S"<class 'gluon.html.DIV'>"
p345
sS'LEGEND'
p346
S"<class 'gluon.html.LEGEND'>"
p347
sS'form'
p348
S'<gluon.sqlhtml.SQLFORM object>'
p349
sS'COLGROUP'
p350
S"<class 'gluon.html.COLGROUP'>"
p351
sS'DAL'
p352
S"<class 'pydal.base.DAL'>"
p353
sS'ASSIGNJS'
p354
S'<function ASSIGNJS>'
p355
sS'TR'
p356
S"<class 'gluon.html.TR'>"
p357
sS'LI'
p358
S"<class 'gluon.html.LI'>"
p359
sS'right_sidebar_enabled'
p360
g149
sS'TH'
p361
S"<class 'gluon.html.TH'>"
p362
sS'TD'
p363
S"<class 'gluon.html.TD'>"
p364
sS'PluginManager'
p365
S"<class 'gluon.tools.PluginManager'>"
p366
sS'IS_URL'
p367
S"<class 'gluon.validators.IS_URL'>"
p368
sS'A'
S"<class 'gluon.html.A'>"
p369
sS'HEAD'
p370
S"<class 'gluon.html.HEAD'>"
p371
sS'IS_DATETIME_IN_RANGE'
p372
S"<class 'gluon.validators.IS_DATETIME_IN_RANGE'>"
p373
sS'FORM'
p374
S"<class 'gluon.html.FORM'>"
p375
sS'I'
S"<class 'gluon.html.I'>"
p376
sS'IS_NOT_IN_DB'
p377
S"<class 'gluon.validators.IS_NOT_IN_DB'>"
p378
sg123
S"<Storage {'body': <cStringIO.StringO object at 0...ambda> at 0x06AF1F30>, 'view': 'nreg/nreg.html'}>"
p379
sS'THEAD'
p380
S"<class 'gluon.html.THEAD'>"
p381
sS'ANY_OF'
p382
S"<class 'gluon.validators.ANY_OF'>"
p383
sS'IS_NULL_OR'
p384
S"<class 'gluon.validators.IS_EMPTY_OR'>"
p385
sg56
S"<Storage {'_vars': None, 'function': 'nreg', 'co...li\\\\web2py\\\\web2py\\\\applications\\\\patrimonio\\\\'}>"
p386
sS'IS_EXPR'
p387
S"<class 'gluon.validators.IS_EXPR'>"
p388
sS'T'
S'<gluon.languages.translator object>'
p389
sS'IS_IN_SET'
p390
S"<class 'gluon.validators.IS_IN_SET'>"
p391
sS'IS_UPLOAD_FILENAME'
p392
S"<class 'gluon.validators.IS_UPLOAD_FILENAME'>"
p393
sS'TT'
p394
S"<class 'gluon.html.TT'>"
p395
sS'IS_DECIMAL_IN_RANGE'
p396
S"<class 'gluon.validators.IS_DECIMAL_IN_RANGE'>"
p397
sssS'traceback'
p398
S'Traceback (most recent call last):\n  File "D:\\backup servidor\\uli\\web2py\\web2py\\gluon\\restricted.py", line 227, in restricted\n    exec ccode in environment\n  File "D:\\backup servidor\\uli\\web2py\\web2py\\applications\\patrimonio\\views\\nreg/nreg.html", line 87, in <module>\n    <!-- encabezado-->\nIndexError: list index out of range\n'
p399
s.